---
triple:          'arm64-apple-darwin'
binary-path:     '/Users/kimtaeju/Desktop/algorithm/chapter9/PACKING'
relocations:
  - { offsetInCU: 0x3F, offset: 0x3F, size: 0x8, addend: 0x0, symName: _objs, symObjAddr: 0x28628, symBinAddr: 0x100008000, symSize: 0x0 }
  - { offsetInCU: 0x4618, offset: 0x4618, size: 0x8, addend: 0x0, symName: __ZNSt3__124__put_character_sequenceB8ue170006IcNS_11char_traitsIcEEEERNS_13basic_ostreamIT_T0_EES7_PKS4_m, symObjAddr: 0xE70, symBinAddr: 0x1000014C4, symSize: 0x1EC }
  - { offsetInCU: 0x6788, offset: 0x6788, size: 0x8, addend: 0x0, symName: __ZNSt3__1lsB8ue170006IcNS_11char_traitsIcEENS_9allocatorIcEEEERNS_13basic_ostreamIT_T0_EES9_RKNS_12basic_stringIS6_S7_T1_EE, symObjAddr: 0x2D8, symBinAddr: 0x10000092C, symSize: 0x4C }
  - { offsetInCU: 0x67E0, offset: 0x67E0, size: 0x8, addend: 0x0, symName: __ZNSt3__14endlB8ue170006IcNS_11char_traitsIcEEEERNS_13basic_ostreamIT_T0_EES7_, symObjAddr: 0x350, symBinAddr: 0x1000009A4, symSize: 0x58 }
  - { offsetInCU: 0x6820, offset: 0x6820, size: 0x8, addend: 0x0, symName: __ZNSt3__112__to_addressB8ue170006I3objEEPT_S3_, symObjAddr: 0xC98, symBinAddr: 0x1000012EC, symSize: 0x14 }
  - { offsetInCU: 0x6855, offset: 0x6855, size: 0x8, addend: 0x0, symName: __ZNSt3__119__libcpp_deallocateB8ue170006EPvmm, symObjAddr: 0xD5C, symBinAddr: 0x1000013B0, symSize: 0x30 }
  - { offsetInCU: 0x689D, offset: 0x689D, size: 0x8, addend: 0x0, symName: __ZNSt3__127__do_deallocate_handle_sizeB8ue170006IJEEEvPvmDpT_, symObjAddr: 0xD8C, symBinAddr: 0x1000013E0, symSize: 0x28 }
  - { offsetInCU: 0x68DB, offset: 0x68DB, size: 0x8, addend: 0x0, symName: __ZNSt3__124__libcpp_operator_deleteB8ue170006IJPvEEEvDpT_, symObjAddr: 0xDB4, symBinAddr: 0x100001408, symSize: 0x24 }
  - { offsetInCU: 0x6910, offset: 0x6910, size: 0x8, addend: 0x0, symName: __ZNSt3__116__pad_and_outputB8ue170006IcNS_11char_traitsIcEEEENS_19ostreambuf_iteratorIT_T0_EES6_PKS4_S8_S8_RNS_8ios_baseES4_, symObjAddr: 0x10F4, symBinAddr: 0x100001748, symSize: 0x240 }
  - { offsetInCU: 0x69DF, offset: 0x69DF, size: 0x8, addend: 0x0, symName: __ZNSt3__19use_facetB8ue170006INS_5ctypeIcEEEERKT_RKNS_6localeE, symObjAddr: 0x1778, symBinAddr: 0x100001DCC, symSize: 0x2C }
  - { offsetInCU: 0x6EAC, offset: 0x6EAC, size: 0x8, addend: 0x0, symName: __ZNSt3__112__to_addressB8ue170006IKcEEPT_S3_, symObjAddr: 0x1810, symBinAddr: 0x100001E64, symSize: 0x14 }
  - { offsetInCU: 0x6F14, offset: 0x6F14, size: 0x8, addend: 0x0, symName: __ZNSt3__118__constexpr_strlenB8ue170006EPKc, symObjAddr: 0x1A34, symBinAddr: 0x100002088, symSize: 0x24 }
  - { offsetInCU: 0x6F40, offset: 0x6F40, size: 0x8, addend: 0x0, symName: __ZNSt3__13maxB8ue170006ImEERKT_S3_S3_, symObjAddr: 0x207C, symBinAddr: 0x1000026D0, symSize: 0x2C }
  - { offsetInCU: 0x6F83, offset: 0x6F83, size: 0x8, addend: 0x0, symName: __ZNSt3__13minB8ue170006ImEERKT_S3_S3_, symObjAddr: 0x20A8, symBinAddr: 0x1000026FC, symSize: 0x2C }
  - { offsetInCU: 0x71C7, offset: 0x71C7, size: 0x8, addend: 0x0, symName: __ZNSt3__13minB8ue170006ImNS_6__lessIvvEEEERKT_S5_S5_T0_, symObjAddr: 0x2134, symBinAddr: 0x100002788, symSize: 0x54 }
  - { offsetInCU: 0x7266, offset: 0x7266, size: 0x8, addend: 0x0, symName: __ZNSt3__120__throw_length_errorB8ue170006EPKc, symObjAddr: 0x2210, symBinAddr: 0x100002864, symSize: 0x64 }
  - { offsetInCU: 0x7290, offset: 0x7290, size: 0x8, addend: 0x0, symName: __ZNSt3__13maxB8ue170006ImNS_6__lessIvvEEEERKT_S5_S5_T0_, symObjAddr: 0x22F4, symBinAddr: 0x100002948, symSize: 0x54 }
  - { offsetInCU: 0x72EA, offset: 0x72EA, size: 0x8, addend: 0x0, symName: __ZNSt3__119__allocate_at_leastB8ue170006INS_9allocatorI3objEEEENS_19__allocation_resultINS_16allocator_traitsIT_E7pointerEEERS6_m, symObjAddr: 0x2458, symBinAddr: 0x100002AAC, symSize: 0x40 }
  - { offsetInCU: 0x732D, offset: 0x732D, size: 0x8, addend: 0x0, symName: __ZNSt3__117__libcpp_allocateB8ue170006Emm, symObjAddr: 0x25DC, symBinAddr: 0x100002C30, symSize: 0x28 }
  - { offsetInCU: 0x736A, offset: 0x736A, size: 0x8, addend: 0x0, symName: __ZNSt3__121__libcpp_operator_newB8ue170006IJmEEEPvDpT_, symObjAddr: 0x2604, symBinAddr: 0x100002C58, symSize: 0x24 }
  - { offsetInCU: 0x73A3, offset: 0x73A3, size: 0x8, addend: 0x0, symName: __ZNSt3__142__uninitialized_allocator_move_if_noexceptB8ue170006INS_9allocatorI3objEENS_16reverse_iteratorIPS2_EES6_S6_EET2_RT_T0_T1_S7_, symObjAddr: 0x268C, symBinAddr: 0x100002CE0, symSize: 0x12C }
  - { offsetInCU: 0x7443, offset: 0x7443, size: 0x8, addend: 0x0, symName: __ZNSt3__14swapB8ue170006IP3objEENS_9enable_ifIXaasr21is_move_constructibleIT_EE5valuesr18is_move_assignableIS4_EE5valueEvE4typeERS4_S7_, symObjAddr: 0x2804, symBinAddr: 0x100002E58, symSize: 0x3C }
  - { offsetInCU: 0x7494, offset: 0x7494, size: 0x8, addend: 0x0, symName: __ZNSt3__122__make_exception_guardB8ue170006INS_29_AllocatorDestroyRangeReverseINS_9allocatorI3objEENS_16reverse_iteratorIPS3_EEEEEENS_28__exception_guard_exceptionsIT_EESA_, symObjAddr: 0x28EC, symBinAddr: 0x100002F40, symSize: 0x4C }
  - { offsetInCU: 0x74CA, offset: 0x74CA, size: 0x8, addend: 0x0, symName: __ZNSt3__1neB8ue170006IP3objS2_EEbRKNS_16reverse_iteratorIT_EERKNS3_IT0_EE, symObjAddr: 0x297C, symBinAddr: 0x100002FD0, symSize: 0x48 }
  - { offsetInCU: 0x7516, offset: 0x7516, size: 0x8, addend: 0x0, symName: __ZNSt3__112__to_addressB8ue170006INS_16reverse_iteratorIP3objEEvEEu7__decayIDTclsr19__to_address_helperIT_EE6__callclsr3stdE7declvalIRKS5_EEEEES7_, symObjAddr: 0x29F8, symBinAddr: 0x10000304C, symSize: 0x24 }
  - { offsetInCU: 0x7575, offset: 0x7575, size: 0x8, addend: 0x0, symName: __ZNSt3__119__allocator_destroyB8ue170006INS_9allocatorI3objEENS_16reverse_iteratorINS4_IPS2_EEEES7_EEvRT_T0_T1_, symObjAddr: 0x2E50, symBinAddr: 0x1000034A4, symSize: 0x70 }
  - { offsetInCU: 0x75DA, offset: 0x75DA, size: 0x8, addend: 0x0, symName: __ZNSt3__1neB8ue170006INS_16reverse_iteratorIP3objEES4_EEbRKNS1_IT_EERKNS1_IT0_EE, symObjAddr: 0x2EFC, symBinAddr: 0x100003550, symSize: 0x60 }
  - { offsetInCU: 0x7626, offset: 0x7626, size: 0x8, addend: 0x0, symName: __ZNSt3__112__to_addressB8ue170006INS_16reverse_iteratorINS1_IP3objEEEEvEEu7__decayIDTclsr19__to_address_helperIT_EE6__callclsr3stdE7declvalIRKS6_EEEEES8_, symObjAddr: 0x2F5C, symBinAddr: 0x1000035B0, symSize: 0x24 }
  - { offsetInCU: 0x78E9, offset: 0x78E9, size: 0x8, addend: 0x0, symName: __ZSt28__throw_bad_array_new_lengthB8ue170006v, symObjAddr: 0x25A8, symBinAddr: 0x100002BFC, symSize: 0x34 }
  - { offsetInCU: 0x7C8D, offset: 0x7C8D, size: 0x8, addend: 0x0, symName: _cache, symObjAddr: 0x28640, symBinAddr: 0x100008018, symSize: 0x0 }
  - { offsetInCU: 0x7CAE, offset: 0x7CAE, size: 0x8, addend: 0x0, symName: _choices, symObjAddr: 0x287D0, symBinAddr: 0x1000081A8, symSize: 0x0 }
  - { offsetInCU: 0x7F23, offset: 0x7F23, size: 0x8, addend: 0x0, symName: __ZNSt3__16vectorI3objNS_9allocatorIS1_EEE26__swap_out_circular_bufferERNS_14__split_bufferIS1_RS3_EE, symObjAddr: 0x1EC4, symBinAddr: 0x100002518, symSize: 0x110 }
  - { offsetInCU: 0xA251, offset: 0xA251, size: 0x8, addend: 0x0, symName: __ZNSt3__16vectorI3objNS_9allocatorIS1_EEEC1B8ue170006Ev, symObjAddr: 0x0, symBinAddr: 0x100000654, symSize: 0x2C }
  - { offsetInCU: 0xA27A, offset: 0xA27A, size: 0x8, addend: 0x0, symName: __ZNSt3__16vectorI3objNS_9allocatorIS1_EEED1B8ue170006Ev, symObjAddr: 0x2C, symBinAddr: 0x100000680, symSize: 0x2C }
  - { offsetInCU: 0xA2A2, offset: 0xA2A2, size: 0x8, addend: 0x0, symName: __Z7packingii, symObjAddr: 0x58, symBinAddr: 0x1000006AC, symSize: 0x1BC }
  - { offsetInCU: 0xA341, offset: 0xA341, size: 0x8, addend: 0x0, symName: __ZNSt3__16vectorI3objNS_9allocatorIS1_EEEixB8ue170006Em, symObjAddr: 0x214, symBinAddr: 0x100000868, symSize: 0x24 }
  - { offsetInCU: 0xA377, offset: 0xA377, size: 0x8, addend: 0x0, symName: __ZNKSt3__16vectorI3objNS_9allocatorIS1_EEE4sizeB8ue170006Ev, symObjAddr: 0x238, symBinAddr: 0x10000088C, symSize: 0x28 }
  - { offsetInCU: 0xA39C, offset: 0xA39C, size: 0x8, addend: 0x0, symName: __Z10print_listi, symObjAddr: 0x260, symBinAddr: 0x1000008B4, symSize: 0x78 }
  - { offsetInCU: 0xA3C5, offset: 0xA3C5, size: 0x8, addend: 0x0, symName: __ZNSt3__113basic_ostreamIcNS_11char_traitsIcEEElsB8ue170006EPFRS3_S4_E, symObjAddr: 0x324, symBinAddr: 0x100000978, symSize: 0x2C }
  - { offsetInCU: 0xA3F8, offset: 0xA3F8, size: 0x8, addend: 0x0, symName: _main, symObjAddr: 0x3A8, symBinAddr: 0x1000009FC, symSize: 0x33C }
  - { offsetInCU: 0xA47E, offset: 0xA47E, size: 0x8, addend: 0x0, symName: __ZNSt3__112basic_stringIcNS_11char_traitsIcEENS_9allocatorIcEEEC1B8ue170006ILi0EEEPKc, symObjAddr: 0x6E4, symBinAddr: 0x100000D38, symSize: 0x34 }
  - { offsetInCU: 0xA4BB, offset: 0xA4BB, size: 0x8, addend: 0x0, symName: __ZNSt3__16vectorI3objNS_9allocatorIS1_EEE9push_backB8ue170006ERKS1_, symObjAddr: 0x718, symBinAddr: 0x100000D6C, symSize: 0x6C }
  - { offsetInCU: 0xA4F6, offset: 0xA4F6, size: 0x8, addend: 0x0, symName: __ZN3objD1Ev, symObjAddr: 0x784, symBinAddr: 0x100000DD8, symSize: 0x2C }
  - { offsetInCU: 0xA521, offset: 0xA521, size: 0x8, addend: 0x0, symName: __ZN3objD2Ev, symObjAddr: 0x7B0, symBinAddr: 0x100000E04, symSize: 0x30 }
  - { offsetInCU: 0xA54C, offset: 0xA54C, size: 0x8, addend: 0x0, symName: __ZNSt3__16vectorI3objNS_9allocatorIS1_EEEC2B8ue170006Ev, symObjAddr: 0x7E0, symBinAddr: 0x100000E34, symSize: 0x4C }
  - { offsetInCU: 0xA57F, offset: 0xA57F, size: 0x8, addend: 0x0, symName: __ZNSt3__117__compressed_pairIP3objNS_9allocatorIS1_EEEC1B8ue170006IDnNS_18__default_init_tagEEEOT_OT0_, symObjAddr: 0x82C, symBinAddr: 0x100000E80, symSize: 0x3C }
  - { offsetInCU: 0xA5D6, offset: 0xA5D6, size: 0x8, addend: 0x0, symName: __ZNSt3__117__compressed_pairIP3objNS_9allocatorIS1_EEEC2B8ue170006IDnNS_18__default_init_tagEEEOT_OT0_, symObjAddr: 0x874, symBinAddr: 0x100000EC8, symSize: 0x40 }
  - { offsetInCU: 0xA62D, offset: 0xA62D, size: 0x8, addend: 0x0, symName: __ZNSt3__122__compressed_pair_elemIP3objLi0ELb0EEC2B8ue170006IDnvEEOT_, symObjAddr: 0x8B4, symBinAddr: 0x100000F08, symSize: 0x1C }
  - { offsetInCU: 0xA66E, offset: 0xA66E, size: 0x8, addend: 0x0, symName: __ZNSt3__122__compressed_pair_elemINS_9allocatorI3objEELi1ELb1EEC2B8ue170006ENS_18__default_init_tagE, symObjAddr: 0x8D0, symBinAddr: 0x100000F24, symSize: 0x2C }
  - { offsetInCU: 0xA6A2, offset: 0xA6A2, size: 0x8, addend: 0x0, symName: __ZNSt3__19allocatorI3objEC2B8ue170006Ev, symObjAddr: 0x8FC, symBinAddr: 0x100000F50, symSize: 0x2C }
  - { offsetInCU: 0xA6CB, offset: 0xA6CB, size: 0x8, addend: 0x0, symName: __ZNSt3__116__non_trivial_ifILb1ENS_9allocatorI3objEEEC2B8ue170006Ev, symObjAddr: 0x928, symBinAddr: 0x100000F7C, symSize: 0x14 }
  - { offsetInCU: 0xA6F4, offset: 0xA6F4, size: 0x8, addend: 0x0, symName: __ZNSt3__16vectorI3objNS_9allocatorIS1_EEED2B8ue170006Ev, symObjAddr: 0x93C, symBinAddr: 0x100000F90, symSize: 0x44 }
  - { offsetInCU: 0xA71D, offset: 0xA71D, size: 0x8, addend: 0x0, symName: __ZNSt3__16vectorI3objNS_9allocatorIS1_EEE16__destroy_vectorC1B8ue170006ERS4_, symObjAddr: 0x980, symBinAddr: 0x100000FD4, symSize: 0x34 }
  - { offsetInCU: 0xA755, offset: 0xA755, size: 0x8, addend: 0x0, symName: __ZNSt3__16vectorI3objNS_9allocatorIS1_EEE16__destroy_vectorclB8ue170006Ev, symObjAddr: 0x9B4, symBinAddr: 0x100001008, symSize: 0x90 }
  - { offsetInCU: 0xA77A, offset: 0xA77A, size: 0x8, addend: 0x0, symName: __ZNSt3__16vectorI3objNS_9allocatorIS1_EEE16__destroy_vectorC2B8ue170006ERS4_, symObjAddr: 0xA44, symBinAddr: 0x100001098, symSize: 0x20 }
  - { offsetInCU: 0xA7B2, offset: 0xA7B2, size: 0x8, addend: 0x0, symName: __ZNSt3__16vectorI3objNS_9allocatorIS1_EEE7__clearB8ue170006Ev, symObjAddr: 0xA64, symBinAddr: 0x1000010B8, symSize: 0x28 }
  - { offsetInCU: 0xA7D7, offset: 0xA7D7, size: 0x8, addend: 0x0, symName: __ZNKSt3__16vectorI3objNS_9allocatorIS1_EEE17__annotate_deleteB8ue170006Ev, symObjAddr: 0xA8C, symBinAddr: 0x1000010E0, symSize: 0xB8 }
  - { offsetInCU: 0xA7FC, offset: 0xA7FC, size: 0x8, addend: 0x0, symName: __ZNSt3__116allocator_traitsINS_9allocatorI3objEEE10deallocateB8ue170006ERS3_PS2_m, symObjAddr: 0xB44, symBinAddr: 0x100001198, symSize: 0x34 }
  - { offsetInCU: 0xA83E, offset: 0xA83E, size: 0x8, addend: 0x0, symName: __ZNSt3__16vectorI3objNS_9allocatorIS1_EEE7__allocB8ue170006Ev, symObjAddr: 0xB78, symBinAddr: 0x1000011CC, symSize: 0x28 }
  - { offsetInCU: 0xA863, offset: 0xA863, size: 0x8, addend: 0x0, symName: __ZNKSt3__16vectorI3objNS_9allocatorIS1_EEE8capacityB8ue170006Ev, symObjAddr: 0xBA0, symBinAddr: 0x1000011F4, symSize: 0x40 }
  - { offsetInCU: 0xA888, offset: 0xA888, size: 0x8, addend: 0x0, symName: __ZNSt3__16vectorI3objNS_9allocatorIS1_EEE22__base_destruct_at_endB8ue170006EPS1_, symObjAddr: 0xBE0, symBinAddr: 0x100001234, symSize: 0x8C }
  - { offsetInCU: 0xA8CB, offset: 0xA8CB, size: 0x8, addend: 0x0, symName: __ZNSt3__116allocator_traitsINS_9allocatorI3objEEE7destroyB8ue170006IS2_vEEvRS3_PT_, symObjAddr: 0xC6C, symBinAddr: 0x1000012C0, symSize: 0x2C }
  - { offsetInCU: 0xA908, offset: 0xA908, size: 0x8, addend: 0x0, symName: __ZNSt3__19allocatorI3objE7destroyB8ue170006EPS1_, symObjAddr: 0xCAC, symBinAddr: 0x100001300, symSize: 0x28 }
  - { offsetInCU: 0xA93B, offset: 0xA93B, size: 0x8, addend: 0x0, symName: __ZNKSt3__16vectorI3objNS_9allocatorIS1_EEE31__annotate_contiguous_containerB8ue170006EPKvS6_S6_S6_, symObjAddr: 0xCD4, symBinAddr: 0x100001328, symSize: 0x20 }
  - { offsetInCU: 0xA990, offset: 0xA990, size: 0x8, addend: 0x0, symName: __ZNKSt3__16vectorI3objNS_9allocatorIS1_EEE4dataB8ue170006Ev, symObjAddr: 0xCF4, symBinAddr: 0x100001348, symSize: 0x28 }
  - { offsetInCU: 0xA9B5, offset: 0xA9B5, size: 0x8, addend: 0x0, symName: __ZNSt3__19allocatorI3objE10deallocateB8ue170006EPS1_m, symObjAddr: 0xD1C, symBinAddr: 0x100001370, symSize: 0x40 }
  - { offsetInCU: 0xA9F6, offset: 0xA9F6, size: 0x8, addend: 0x0, symName: __ZNSt3__117__compressed_pairIP3objNS_9allocatorIS1_EEE6secondB8ue170006Ev, symObjAddr: 0xDD8, symBinAddr: 0x10000142C, symSize: 0x24 }
  - { offsetInCU: 0xAA1B, offset: 0xAA1B, size: 0x8, addend: 0x0, symName: __ZNSt3__122__compressed_pair_elemINS_9allocatorI3objEELi1ELb1EE5__getB8ue170006Ev, symObjAddr: 0xDFC, symBinAddr: 0x100001450, symSize: 0x14 }
  - { offsetInCU: 0xAA40, offset: 0xAA40, size: 0x8, addend: 0x0, symName: __ZNKSt3__16vectorI3objNS_9allocatorIS1_EEE9__end_capB8ue170006Ev, symObjAddr: 0xE10, symBinAddr: 0x100001464, symSize: 0x28 }
  - { offsetInCU: 0xAA65, offset: 0xAA65, size: 0x8, addend: 0x0, symName: __ZNKSt3__117__compressed_pairIP3objNS_9allocatorIS1_EEE5firstB8ue170006Ev, symObjAddr: 0xE38, symBinAddr: 0x10000148C, symSize: 0x24 }
  - { offsetInCU: 0xAA8A, offset: 0xAA8A, size: 0x8, addend: 0x0, symName: __ZNKSt3__122__compressed_pair_elemIP3objLi0ELb0EE5__getB8ue170006Ev, symObjAddr: 0xE5C, symBinAddr: 0x1000014B0, symSize: 0x14 }
  - { offsetInCU: 0xAAAF, offset: 0xAAAF, size: 0x8, addend: 0x0, symName: __ZNKSt3__112basic_stringIcNS_11char_traitsIcEENS_9allocatorIcEEE4dataB8ue170006Ev, symObjAddr: 0x105C, symBinAddr: 0x1000016B0, symSize: 0x28 }
  - { offsetInCU: 0xAAD4, offset: 0xAAD4, size: 0x8, addend: 0x0, symName: __ZNKSt3__112basic_stringIcNS_11char_traitsIcEENS_9allocatorIcEEE4sizeB8ue170006Ev, symObjAddr: 0x1084, symBinAddr: 0x1000016D8, symSize: 0x54 }
  - { offsetInCU: 0xAB17, offset: 0xAB17, size: 0x8, addend: 0x0, symName: __ZNKSt3__113basic_ostreamIcNS_11char_traitsIcEEE6sentrycvbB8ue170006Ev, symObjAddr: 0x10D8, symBinAddr: 0x10000172C, symSize: 0x1C }
  - { offsetInCU: 0xAB3C, offset: 0xAB3C, size: 0x8, addend: 0x0, symName: __ZNSt3__119ostreambuf_iteratorIcNS_11char_traitsIcEEEC1B8ue170006ERNS_13basic_ostreamIcS2_EE, symObjAddr: 0x1334, symBinAddr: 0x100001988, symSize: 0x34 }
  - { offsetInCU: 0xAB73, offset: 0xAB73, size: 0x8, addend: 0x0, symName: __ZNKSt3__18ios_base5flagsB8ue170006Ev, symObjAddr: 0x1368, symBinAddr: 0x1000019BC, symSize: 0x18 }
  - { offsetInCU: 0xAB99, offset: 0xAB99, size: 0x8, addend: 0x0, symName: __ZNKSt3__19basic_iosIcNS_11char_traitsIcEEE4fillB8ue170006Ev, symObjAddr: 0x1380, symBinAddr: 0x1000019D4, symSize: 0x64 }
  - { offsetInCU: 0xABC0, offset: 0xABC0, size: 0x8, addend: 0x0, symName: __ZNKSt3__119ostreambuf_iteratorIcNS_11char_traitsIcEEE6failedB8ue170006Ev, symObjAddr: 0x13E4, symBinAddr: 0x100001A38, symSize: 0x24 }
  - { offsetInCU: 0xABE5, offset: 0xABE5, size: 0x8, addend: 0x0, symName: __ZNSt3__19basic_iosIcNS_11char_traitsIcEEE8setstateB8ue170006Ej, symObjAddr: 0x1408, symBinAddr: 0x100001A5C, symSize: 0x2C }
  - { offsetInCU: 0xAC19, offset: 0xAC19, size: 0x8, addend: 0x0, symName: __ZNKSt3__18ios_base5widthB8ue170006Ev, symObjAddr: 0x1434, symBinAddr: 0x100001A88, symSize: 0x18 }
  - { offsetInCU: 0xAC40, offset: 0xAC40, size: 0x8, addend: 0x0, symName: __ZNSt3__115basic_streambufIcNS_11char_traitsIcEEE5sputnB8ue170006EPKcl, symObjAddr: 0x144C, symBinAddr: 0x100001AA0, symSize: 0x3C }
  - { offsetInCU: 0xAC81, offset: 0xAC81, size: 0x8, addend: 0x0, symName: __ZNSt3__112basic_stringIcNS_11char_traitsIcEENS_9allocatorIcEEEC1B8ue170006Emc, symObjAddr: 0x1488, symBinAddr: 0x100001ADC, symSize: 0x3C }
  - { offsetInCU: 0xACC8, offset: 0xACC8, size: 0x8, addend: 0x0, symName: __ZNSt3__18ios_base5widthB8ue170006El, symObjAddr: 0x14C4, symBinAddr: 0x100001B18, symSize: 0x2C }
  - { offsetInCU: 0xAD0D, offset: 0xAD0D, size: 0x8, addend: 0x0, symName: __ZNSt3__112basic_stringIcNS_11char_traitsIcEENS_9allocatorIcEEEC2B8ue170006Emc, symObjAddr: 0x14F0, symBinAddr: 0x100001B44, symSize: 0x4C }
  - { offsetInCU: 0xAD54, offset: 0xAD54, size: 0x8, addend: 0x0, symName: __ZNSt3__117__compressed_pairINS_12basic_stringIcNS_11char_traitsIcEENS_9allocatorIcEEE5__repES5_EC1B8ue170006INS_18__default_init_tagESA_EEOT_OT0_, symObjAddr: 0x153C, symBinAddr: 0x100001B90, symSize: 0x3C }
  - { offsetInCU: 0xADAB, offset: 0xADAB, size: 0x8, addend: 0x0, symName: __ZNSt3__117__compressed_pairINS_12basic_stringIcNS_11char_traitsIcEENS_9allocatorIcEEE5__repES5_EC2B8ue170006INS_18__default_init_tagESA_EEOT_OT0_, symObjAddr: 0x1578, symBinAddr: 0x100001BCC, symSize: 0x3C }
  - { offsetInCU: 0xAE02, offset: 0xAE02, size: 0x8, addend: 0x0, symName: __ZNSt3__122__compressed_pair_elemINS_12basic_stringIcNS_11char_traitsIcEENS_9allocatorIcEEE5__repELi0ELb0EEC2B8ue170006ENS_18__default_init_tagE, symObjAddr: 0x15B4, symBinAddr: 0x100001C08, symSize: 0x14 }
  - { offsetInCU: 0xAE36, offset: 0xAE36, size: 0x8, addend: 0x0, symName: __ZNSt3__122__compressed_pair_elemINS_9allocatorIcEELi1ELb1EEC2B8ue170006ENS_18__default_init_tagE, symObjAddr: 0x15C8, symBinAddr: 0x100001C1C, symSize: 0x2C }
  - { offsetInCU: 0xAE6A, offset: 0xAE6A, size: 0x8, addend: 0x0, symName: __ZNSt3__19allocatorIcEC2B8ue170006Ev, symObjAddr: 0x15F4, symBinAddr: 0x100001C48, symSize: 0x2C }
  - { offsetInCU: 0xAE93, offset: 0xAE93, size: 0x8, addend: 0x0, symName: __ZNSt3__116__non_trivial_ifILb1ENS_9allocatorIcEEEC2B8ue170006Ev, symObjAddr: 0x1620, symBinAddr: 0x100001C74, symSize: 0x14 }
  - { offsetInCU: 0xAEBC, offset: 0xAEBC, size: 0x8, addend: 0x0, symName: __ZNSt3__119ostreambuf_iteratorIcNS_11char_traitsIcEEEC2B8ue170006ERNS_13basic_ostreamIcS2_EE, symObjAddr: 0x1634, symBinAddr: 0x100001C88, symSize: 0x54 }
  - { offsetInCU: 0xAEF2, offset: 0xAEF2, size: 0x8, addend: 0x0, symName: __ZNKSt3__19basic_iosIcNS_11char_traitsIcEEE5rdbufB8ue170006Ev, symObjAddr: 0x1688, symBinAddr: 0x100001CDC, symSize: 0x24 }
  - { offsetInCU: 0xAF19, offset: 0xAF19, size: 0x8, addend: 0x0, symName: __ZNKSt3__18ios_base5rdbufB8ue170006Ev, symObjAddr: 0x16AC, symBinAddr: 0x100001D00, symSize: 0x18 }
  - { offsetInCU: 0xAF3E, offset: 0xAF3E, size: 0x8, addend: 0x0, symName: __ZNSt3__111char_traitsIcE11eq_int_typeB8ue170006Eii, symObjAddr: 0x16C4, symBinAddr: 0x100001D18, symSize: 0x28 }
  - { offsetInCU: 0xAF71, offset: 0xAF71, size: 0x8, addend: 0x0, symName: __ZNSt3__111char_traitsIcE3eofB8ue170006Ev, symObjAddr: 0x16EC, symBinAddr: 0x100001D40, symSize: 0x8 }
  - { offsetInCU: 0xAF84, offset: 0xAF84, size: 0x8, addend: 0x0, symName: __ZNKSt3__19basic_iosIcNS_11char_traitsIcEEE5widenB8ue170006Ec, symObjAddr: 0x16F4, symBinAddr: 0x100001D48, symSize: 0x84 }
  - { offsetInCU: 0xAFF1, offset: 0xAFF1, size: 0x8, addend: 0x0, symName: __ZNKSt3__15ctypeIcE5widenB8ue170006Ec, symObjAddr: 0x17A4, symBinAddr: 0x100001DF8, symSize: 0x38 }
  - { offsetInCU: 0xB024, offset: 0xB024, size: 0x8, addend: 0x0, symName: __ZNSt3__18ios_base8setstateB8ue170006Ej, symObjAddr: 0x17DC, symBinAddr: 0x100001E30, symSize: 0x34 }
  - { offsetInCU: 0xB05A, offset: 0xB05A, size: 0x8, addend: 0x0, symName: __ZNKSt3__112basic_stringIcNS_11char_traitsIcEENS_9allocatorIcEEE13__get_pointerB8ue170006Ev, symObjAddr: 0x1824, symBinAddr: 0x100001E78, symSize: 0x54 }
  - { offsetInCU: 0xB07F, offset: 0xB07F, size: 0x8, addend: 0x0, symName: __ZNKSt3__112basic_stringIcNS_11char_traitsIcEENS_9allocatorIcEEE9__is_longB8ue170006Ev, symObjAddr: 0x1878, symBinAddr: 0x100001ECC, symSize: 0x38 }
  - { offsetInCU: 0xB0A4, offset: 0xB0A4, size: 0x8, addend: 0x0, symName: __ZNKSt3__112basic_stringIcNS_11char_traitsIcEENS_9allocatorIcEEE18__get_long_pointerB8ue170006Ev, symObjAddr: 0x18B0, symBinAddr: 0x100001F04, symSize: 0x28 }
  - { offsetInCU: 0xB0C9, offset: 0xB0C9, size: 0x8, addend: 0x0, symName: __ZNKSt3__112basic_stringIcNS_11char_traitsIcEENS_9allocatorIcEEE19__get_short_pointerB8ue170006Ev, symObjAddr: 0x18D8, symBinAddr: 0x100001F2C, symSize: 0x28 }
  - { offsetInCU: 0xB0EE, offset: 0xB0EE, size: 0x8, addend: 0x0, symName: __ZNKSt3__117__compressed_pairINS_12basic_stringIcNS_11char_traitsIcEENS_9allocatorIcEEE5__repES5_E5firstB8ue170006Ev, symObjAddr: 0x1900, symBinAddr: 0x100001F54, symSize: 0x24 }
  - { offsetInCU: 0xB113, offset: 0xB113, size: 0x8, addend: 0x0, symName: __ZNKSt3__122__compressed_pair_elemINS_12basic_stringIcNS_11char_traitsIcEENS_9allocatorIcEEE5__repELi0ELb0EE5__getB8ue170006Ev, symObjAddr: 0x1924, symBinAddr: 0x100001F78, symSize: 0x14 }
  - { offsetInCU: 0xB138, offset: 0xB138, size: 0x8, addend: 0x0, symName: __ZNSt3__114pointer_traitsIPKcE10pointer_toB8ue170006ERS1_, symObjAddr: 0x1938, symBinAddr: 0x100001F8C, symSize: 0x14 }
  - { offsetInCU: 0xB15B, offset: 0xB15B, size: 0x8, addend: 0x0, symName: __ZNKSt3__112basic_stringIcNS_11char_traitsIcEENS_9allocatorIcEEE15__get_long_sizeB8ue170006Ev, symObjAddr: 0x194C, symBinAddr: 0x100001FA0, symSize: 0x28 }
  - { offsetInCU: 0xB180, offset: 0xB180, size: 0x8, addend: 0x0, symName: __ZNKSt3__112basic_stringIcNS_11char_traitsIcEENS_9allocatorIcEEE16__get_short_sizeB8ue170006Ev, symObjAddr: 0x1974, symBinAddr: 0x100001FC8, symSize: 0x34 }
  - { offsetInCU: 0xB1A5, offset: 0xB1A5, size: 0x8, addend: 0x0, symName: __ZNSt3__112basic_stringIcNS_11char_traitsIcEENS_9allocatorIcEEEC2B8ue170006ILi0EEEPKc, symObjAddr: 0x19A8, symBinAddr: 0x100001FFC, symSize: 0x58 }
  - { offsetInCU: 0xB1E3, offset: 0xB1E3, size: 0x8, addend: 0x0, symName: __ZNSt3__111char_traitsIcE6lengthB8ue170006EPKc, symObjAddr: 0x1A00, symBinAddr: 0x100002054, symSize: 0x34 }
  - { offsetInCU: 0xB206, offset: 0xB206, size: 0x8, addend: 0x0, symName: __ZNSt3__16vectorI3objNS_9allocatorIS1_EEE9__end_capB8ue170006Ev, symObjAddr: 0x1A58, symBinAddr: 0x1000020AC, symSize: 0x28 }
  - { offsetInCU: 0xB22B, offset: 0xB22B, size: 0x8, addend: 0x0, symName: __ZNSt3__16vectorI3objNS_9allocatorIS1_EEE22__construct_one_at_endB8ue170006IJRKS1_EEEvDpOT_, symObjAddr: 0x1A80, symBinAddr: 0x1000020D4, symSize: 0x90 }
  - { offsetInCU: 0xB278, offset: 0xB278, size: 0x8, addend: 0x0, symName: __ZNSt3__16vectorI3objNS_9allocatorIS1_EEE21__push_back_slow_pathIRKS1_EEvOT_, symObjAddr: 0x1B10, symBinAddr: 0x100002164, symSize: 0xD8 }
  - { offsetInCU: 0xB2D5, offset: 0xB2D5, size: 0x8, addend: 0x0, symName: __ZNSt3__117__compressed_pairIP3objNS_9allocatorIS1_EEE5firstB8ue170006Ev, symObjAddr: 0x1BE8, symBinAddr: 0x10000223C, symSize: 0x24 }
  - { offsetInCU: 0xB2FA, offset: 0xB2FA, size: 0x8, addend: 0x0, symName: __ZNSt3__122__compressed_pair_elemIP3objLi0ELb0EE5__getB8ue170006Ev, symObjAddr: 0x1C0C, symBinAddr: 0x100002260, symSize: 0x14 }
  - { offsetInCU: 0xB338, offset: 0xB338, size: 0x8, addend: 0x0, symName: __ZNSt3__16vectorI3objNS_9allocatorIS1_EEE21_ConstructTransactionC1B8ue170006ERS4_m, symObjAddr: 0x1C20, symBinAddr: 0x100002274, symSize: 0x3C }
  - { offsetInCU: 0xB37F, offset: 0xB37F, size: 0x8, addend: 0x0, symName: __ZNSt3__116allocator_traitsINS_9allocatorI3objEEE9constructB8ue170006IS2_JRKS2_EvEEvRS3_PT_DpOT0_, symObjAddr: 0x1C5C, symBinAddr: 0x1000022B0, symSize: 0x34 }
  - { offsetInCU: 0xB3D6, offset: 0xB3D6, size: 0x8, addend: 0x0, symName: __ZNSt3__16vectorI3objNS_9allocatorIS1_EEE21_ConstructTransactionD1B8ue170006Ev, symObjAddr: 0x1C90, symBinAddr: 0x1000022E4, symSize: 0x2C }
  - { offsetInCU: 0xB3FF, offset: 0xB3FF, size: 0x8, addend: 0x0, symName: __ZNSt3__16vectorI3objNS_9allocatorIS1_EEE21_ConstructTransactionC2B8ue170006ERS4_m, symObjAddr: 0x1CBC, symBinAddr: 0x100002310, symSize: 0x44 }
  - { offsetInCU: 0xB446, offset: 0xB446, size: 0x8, addend: 0x0, symName: __ZNSt3__19allocatorI3objE9constructB8ue170006IS1_JRKS1_EEEvPT_DpOT0_, symObjAddr: 0x1D00, symBinAddr: 0x100002354, symSize: 0x30 }
  - { offsetInCU: 0xB49B, offset: 0xB49B, size: 0x8, addend: 0x0, symName: __ZN3objC1ERKS_, symObjAddr: 0x1D30, symBinAddr: 0x100002384, symSize: 0x34 }
  - { offsetInCU: 0xB4CF, offset: 0xB4CF, size: 0x8, addend: 0x0, symName: __ZN3objC2ERKS_, symObjAddr: 0x1D64, symBinAddr: 0x1000023B8, symSize: 0x48 }
  - { offsetInCU: 0xB503, offset: 0xB503, size: 0x8, addend: 0x0, symName: __ZNSt3__16vectorI3objNS_9allocatorIS1_EEE21_ConstructTransactionD2B8ue170006Ev, symObjAddr: 0x1DAC, symBinAddr: 0x100002400, symSize: 0x20 }
  - { offsetInCU: 0xB52B, offset: 0xB52B, size: 0x8, addend: 0x0, symName: __ZNKSt3__16vectorI3objNS_9allocatorIS1_EEE11__recommendB8ue170006Em, symObjAddr: 0x1DCC, symBinAddr: 0x100002420, symSize: 0xB4 }
  - { offsetInCU: 0xB57F, offset: 0xB57F, size: 0x8, addend: 0x0, symName: __ZNSt3__114__split_bufferI3objRNS_9allocatorIS1_EEEC1EmmS4_, symObjAddr: 0x1E80, symBinAddr: 0x1000024D4, symSize: 0x44 }
  - { offsetInCU: 0xB5D4, offset: 0xB5D4, size: 0x8, addend: 0x0, symName: __ZNSt3__114__split_bufferI3objRNS_9allocatorIS1_EEED1Ev, symObjAddr: 0x1FD4, symBinAddr: 0x100002628, symSize: 0x2C }
  - { offsetInCU: 0xB5FE, offset: 0xB5FE, size: 0x8, addend: 0x0, symName: __ZNKSt3__16vectorI3objNS_9allocatorIS1_EEE8max_sizeEv, symObjAddr: 0x2000, symBinAddr: 0x100002654, symSize: 0x60 }
  - { offsetInCU: 0xB625, offset: 0xB625, size: 0x8, addend: 0x0, symName: __ZNKSt3__16vectorI3objNS_9allocatorIS1_EEE20__throw_length_errorB8ue170006Ev, symObjAddr: 0x2060, symBinAddr: 0x1000026B4, symSize: 0x1C }
  - { offsetInCU: 0xB654, offset: 0xB654, size: 0x8, addend: 0x0, symName: __ZNSt3__116allocator_traitsINS_9allocatorI3objEEE8max_sizeB8ue170006IS3_vEEmRKS3_, symObjAddr: 0x20D4, symBinAddr: 0x100002728, symSize: 0x24 }
  - { offsetInCU: 0xB682, offset: 0xB682, size: 0x8, addend: 0x0, symName: __ZNKSt3__16vectorI3objNS_9allocatorIS1_EEE7__allocB8ue170006Ev, symObjAddr: 0x20F8, symBinAddr: 0x10000274C, symSize: 0x28 }
  - { offsetInCU: 0xB6A7, offset: 0xB6A7, size: 0x8, addend: 0x0, symName: __ZNSt3__114numeric_limitsIlE3maxB8ue170006Ev, symObjAddr: 0x2120, symBinAddr: 0x100002774, symSize: 0x14 }
  - { offsetInCU: 0xB6CF, offset: 0xB6CF, size: 0x8, addend: 0x0, symName: __ZNKSt3__16__lessIvvEclB8ue170006ImmEEbRKT_RKT0_, symObjAddr: 0x2188, symBinAddr: 0x1000027DC, symSize: 0x34 }
  - { offsetInCU: 0xB722, offset: 0xB722, size: 0x8, addend: 0x0, symName: __ZNKSt3__19allocatorI3objE8max_sizeB8ue170006Ev, symObjAddr: 0x21BC, symBinAddr: 0x100002810, symSize: 0x14 }
  - { offsetInCU: 0xB747, offset: 0xB747, size: 0x8, addend: 0x0, symName: __ZNKSt3__117__compressed_pairIP3objNS_9allocatorIS1_EEE6secondB8ue170006Ev, symObjAddr: 0x21D0, symBinAddr: 0x100002824, symSize: 0x24 }
  - { offsetInCU: 0xB76C, offset: 0xB76C, size: 0x8, addend: 0x0, symName: __ZNKSt3__122__compressed_pair_elemINS_9allocatorI3objEELi1ELb1EE5__getB8ue170006Ev, symObjAddr: 0x21F4, symBinAddr: 0x100002848, symSize: 0x14 }
  - { offsetInCU: 0xB791, offset: 0xB791, size: 0x8, addend: 0x0, symName: __ZNSt3__123__libcpp_numeric_limitsIlLb1EE3maxB8ue170006Ev, symObjAddr: 0x2208, symBinAddr: 0x10000285C, symSize: 0x8 }
  - { offsetInCU: 0xB7A5, offset: 0xB7A5, size: 0x8, addend: 0x0, symName: __ZNSt12length_errorC1B8ue170006EPKc, symObjAddr: 0x2274, symBinAddr: 0x1000028C8, symSize: 0x34 }
  - { offsetInCU: 0xB7DC, offset: 0xB7DC, size: 0x8, addend: 0x0, symName: __ZNSt12length_errorC2B8ue170006EPKc, symObjAddr: 0x22A8, symBinAddr: 0x1000028FC, symSize: 0x4C }
  - { offsetInCU: 0xB813, offset: 0xB813, size: 0x8, addend: 0x0, symName: __ZNSt3__114__split_bufferI3objRNS_9allocatorIS1_EEEC2EmmS4_, symObjAddr: 0x2348, symBinAddr: 0x10000299C, symSize: 0xD4 }
  - { offsetInCU: 0xB886, offset: 0xB886, size: 0x8, addend: 0x0, symName: __ZNSt3__117__compressed_pairIP3objRNS_9allocatorIS1_EEEC1B8ue170006IDnS5_EEOT_OT0_, symObjAddr: 0x241C, symBinAddr: 0x100002A70, symSize: 0x3C }
  - { offsetInCU: 0xB8DD, offset: 0xB8DD, size: 0x8, addend: 0x0, symName: __ZNSt3__114__split_bufferI3objRNS_9allocatorIS1_EEE7__allocB8ue170006Ev, symObjAddr: 0x2498, symBinAddr: 0x100002AEC, symSize: 0x28 }
  - { offsetInCU: 0xB902, offset: 0xB902, size: 0x8, addend: 0x0, symName: __ZNSt3__114__split_bufferI3objRNS_9allocatorIS1_EEE9__end_capB8ue170006Ev, symObjAddr: 0x24C0, symBinAddr: 0x100002B14, symSize: 0x28 }
  - { offsetInCU: 0xB927, offset: 0xB927, size: 0x8, addend: 0x0, symName: __ZNSt3__117__compressed_pairIP3objRNS_9allocatorIS1_EEEC2B8ue170006IDnS5_EEOT_OT0_, symObjAddr: 0x24E8, symBinAddr: 0x100002B3C, symSize: 0x48 }
  - { offsetInCU: 0xB97E, offset: 0xB97E, size: 0x8, addend: 0x0, symName: __ZNSt3__122__compressed_pair_elemIRNS_9allocatorI3objEELi1ELb0EEC2B8ue170006IS4_vEEOT_, symObjAddr: 0x2530, symBinAddr: 0x100002B84, symSize: 0x20 }
  - { offsetInCU: 0xB9BF, offset: 0xB9BF, size: 0x8, addend: 0x0, symName: __ZNSt3__19allocatorI3objE8allocateB8ue170006Em, symObjAddr: 0x2550, symBinAddr: 0x100002BA4, symSize: 0x58 }
  - { offsetInCU: 0xB9F2, offset: 0xB9F2, size: 0x8, addend: 0x0, symName: __ZNSt3__117__compressed_pairIP3objRNS_9allocatorIS1_EEE6secondB8ue170006Ev, symObjAddr: 0x2628, symBinAddr: 0x100002C7C, symSize: 0x28 }
  - { offsetInCU: 0xBA17, offset: 0xBA17, size: 0x8, addend: 0x0, symName: __ZNSt3__122__compressed_pair_elemIRNS_9allocatorI3objEELi1ELb0EE5__getB8ue170006Ev, symObjAddr: 0x2650, symBinAddr: 0x100002CA4, symSize: 0x18 }
  - { offsetInCU: 0xBA3C, offset: 0xBA3C, size: 0x8, addend: 0x0, symName: __ZNSt3__117__compressed_pairIP3objRNS_9allocatorIS1_EEE5firstB8ue170006Ev, symObjAddr: 0x2668, symBinAddr: 0x100002CBC, symSize: 0x24 }
  - { offsetInCU: 0xBA61, offset: 0xBA61, size: 0x8, addend: 0x0, symName: __ZNSt3__116reverse_iteratorIP3objEC1B8ue170006ES2_, symObjAddr: 0x27B8, symBinAddr: 0x100002E0C, symSize: 0x34 }
  - { offsetInCU: 0xBA98, offset: 0xBA98, size: 0x8, addend: 0x0, symName: __ZNKSt3__116reverse_iteratorIP3objE4baseB8ue170006Ev, symObjAddr: 0x27EC, symBinAddr: 0x100002E40, symSize: 0x18 }
  - { offsetInCU: 0xBABD, offset: 0xBABD, size: 0x8, addend: 0x0, symName: __ZNKSt3__16vectorI3objNS_9allocatorIS1_EEE14__annotate_newB8ue170006Em, symObjAddr: 0x2840, symBinAddr: 0x100002E94, symSize: 0xAC }
  - { offsetInCU: 0xBAF1, offset: 0xBAF1, size: 0x8, addend: 0x0, symName: __ZNSt3__129_AllocatorDestroyRangeReverseINS_9allocatorI3objEENS_16reverse_iteratorIPS2_EEEC1B8ue170006ERS3_RS6_S9_, symObjAddr: 0x2938, symBinAddr: 0x100002F8C, symSize: 0x44 }
  - { offsetInCU: 0xBB4C, offset: 0xBB4C, size: 0x8, addend: 0x0, symName: __ZNSt3__116allocator_traitsINS_9allocatorI3objEEE9constructB8ue170006IS2_JS2_EvEEvRS3_PT_DpOT0_, symObjAddr: 0x29C4, symBinAddr: 0x100003018, symSize: 0x34 }
  - { offsetInCU: 0xBBA3, offset: 0xBBA3, size: 0x8, addend: 0x0, symName: __ZNKSt3__116reverse_iteratorIP3objEdeB8ue170006Ev, symObjAddr: 0x2A1C, symBinAddr: 0x100003070, symSize: 0x28 }
  - { offsetInCU: 0xBBD6, offset: 0xBBD6, size: 0x8, addend: 0x0, symName: __ZNSt3__116reverse_iteratorIP3objEppB8ue170006Ev, symObjAddr: 0x2A44, symBinAddr: 0x100003098, symSize: 0x20 }
  - { offsetInCU: 0xBBFB, offset: 0xBBFB, size: 0x8, addend: 0x0, symName: __ZNSt3__128__exception_guard_exceptionsINS_29_AllocatorDestroyRangeReverseINS_9allocatorI3objEENS_16reverse_iteratorIPS3_EEEEE10__completeB8ue170006Ev, symObjAddr: 0x2A64, symBinAddr: 0x1000030B8, symSize: 0x1C }
  - { offsetInCU: 0xBC20, offset: 0xBC20, size: 0x8, addend: 0x0, symName: __ZNSt3__128__exception_guard_exceptionsINS_29_AllocatorDestroyRangeReverseINS_9allocatorI3objEENS_16reverse_iteratorIPS3_EEEEED1B8ue170006Ev, symObjAddr: 0x2A80, symBinAddr: 0x1000030D4, symSize: 0x2C }
  - { offsetInCU: 0xBC49, offset: 0xBC49, size: 0x8, addend: 0x0, symName: __ZNSt3__128__exception_guard_exceptionsINS_29_AllocatorDestroyRangeReverseINS_9allocatorI3objEENS_16reverse_iteratorIPS3_EEEEEC1B8ue170006ES8_, symObjAddr: 0x2AAC, symBinAddr: 0x100003100, symSize: 0x34 }
  - { offsetInCU: 0xBC81, offset: 0xBC81, size: 0x8, addend: 0x0, symName: __ZNSt3__128__exception_guard_exceptionsINS_29_AllocatorDestroyRangeReverseINS_9allocatorI3objEENS_16reverse_iteratorIPS3_EEEEEC2B8ue170006ES8_, symObjAddr: 0x2AE0, symBinAddr: 0x100003134, symSize: 0x30 }
  - { offsetInCU: 0xBCB9, offset: 0xBCB9, size: 0x8, addend: 0x0, symName: __ZNSt3__129_AllocatorDestroyRangeReverseINS_9allocatorI3objEENS_16reverse_iteratorIPS2_EEEC2B8ue170006ERS3_RS6_S9_, symObjAddr: 0x2B10, symBinAddr: 0x100003164, symSize: 0x38 }
  - { offsetInCU: 0xBD0F, offset: 0xBD0F, size: 0x8, addend: 0x0, symName: __ZNSt3__19allocatorI3objE9constructB8ue170006IS1_JS1_EEEvPT_DpOT0_, symObjAddr: 0x2B48, symBinAddr: 0x10000319C, symSize: 0x30 }
  - { offsetInCU: 0xBD64, offset: 0xBD64, size: 0x8, addend: 0x0, symName: __ZN3objC1EOS_, symObjAddr: 0x2B78, symBinAddr: 0x1000031CC, symSize: 0x34 }
  - { offsetInCU: 0xBD98, offset: 0xBD98, size: 0x8, addend: 0x0, symName: __ZN3objC2EOS_, symObjAddr: 0x2BAC, symBinAddr: 0x100003200, symSize: 0x48 }
  - { offsetInCU: 0xBDCC, offset: 0xBDCC, size: 0x8, addend: 0x0, symName: __ZNSt3__112basic_stringIcNS_11char_traitsIcEENS_9allocatorIcEEEC1B8ue170006EOS5_, symObjAddr: 0x2BF4, symBinAddr: 0x100003248, symSize: 0x34 }
  - { offsetInCU: 0xBE04, offset: 0xBE04, size: 0x8, addend: 0x0, symName: __ZNSt3__112basic_stringIcNS_11char_traitsIcEENS_9allocatorIcEEEC2B8ue170006EOS5_, symObjAddr: 0x2C28, symBinAddr: 0x10000327C, symSize: 0x50 }
  - { offsetInCU: 0xBE3C, offset: 0xBE3C, size: 0x8, addend: 0x0, symName: __ZNSt3__112basic_stringIcNS_11char_traitsIcEENS_9allocatorIcEEE14__default_initB8ue170006Ev, symObjAddr: 0x2C78, symBinAddr: 0x1000032CC, symSize: 0x40 }
  - { offsetInCU: 0xBE61, offset: 0xBE61, size: 0x8, addend: 0x0, symName: __ZNSt3__117__compressed_pairINS_12basic_stringIcNS_11char_traitsIcEENS_9allocatorIcEEE5__repES5_E5firstB8ue170006Ev, symObjAddr: 0x2CB8, symBinAddr: 0x10000330C, symSize: 0x24 }
  - { offsetInCU: 0xBE86, offset: 0xBE86, size: 0x8, addend: 0x0, symName: __ZNSt3__122__compressed_pair_elemINS_12basic_stringIcNS_11char_traitsIcEENS_9allocatorIcEEE5__repELi0ELb0EE5__getB8ue170006Ev, symObjAddr: 0x2CDC, symBinAddr: 0x100003330, symSize: 0x14 }
  - { offsetInCU: 0xBEB0, offset: 0xBEB0, size: 0x8, addend: 0x0, symName: __ZNSt3__119__to_address_helperINS_16reverse_iteratorIP3objEEvE6__callB8ue170006ERKS4_, symObjAddr: 0x2CF0, symBinAddr: 0x100003344, symSize: 0x38 }
  - { offsetInCU: 0xBED3, offset: 0xBED3, size: 0x8, addend: 0x0, symName: __ZNKSt3__116reverse_iteratorIP3objEptB8ue170006Ev, symObjAddr: 0x2D28, symBinAddr: 0x10000337C, symSize: 0x24 }
  - { offsetInCU: 0xBEF8, offset: 0xBEF8, size: 0x8, addend: 0x0, symName: __ZNSt3__128__exception_guard_exceptionsINS_29_AllocatorDestroyRangeReverseINS_9allocatorI3objEENS_16reverse_iteratorIPS3_EEEEED2B8ue170006Ev, symObjAddr: 0x2D4C, symBinAddr: 0x1000033A0, symSize: 0x50 }
  - { offsetInCU: 0xBF21, offset: 0xBF21, size: 0x8, addend: 0x0, symName: __ZNKSt3__129_AllocatorDestroyRangeReverseINS_9allocatorI3objEENS_16reverse_iteratorIPS2_EEEclB8ue170006Ev, symObjAddr: 0x2D9C, symBinAddr: 0x1000033F0, symSize: 0xB4 }
  - { offsetInCU: 0xBF47, offset: 0xBF47, size: 0x8, addend: 0x0, symName: __ZNSt3__116reverse_iteratorINS0_IP3objEEEC1B8ue170006ES3_, symObjAddr: 0x2EC0, symBinAddr: 0x100003514, symSize: 0x3C }
  - { offsetInCU: 0xBF7E, offset: 0xBF7E, size: 0x8, addend: 0x0, symName: __ZNSt3__116reverse_iteratorINS0_IP3objEEEppB8ue170006Ev, symObjAddr: 0x2F80, symBinAddr: 0x1000035D4, symSize: 0x30 }
  - { offsetInCU: 0xBFA3, offset: 0xBFA3, size: 0x8, addend: 0x0, symName: __ZNKSt3__116reverse_iteratorINS0_IP3objEEE4baseB8ue170006Ev, symObjAddr: 0x2FB0, symBinAddr: 0x100003604, symSize: 0x24 }
  - { offsetInCU: 0xBFCD, offset: 0xBFCD, size: 0x8, addend: 0x0, symName: __ZNSt3__119__to_address_helperINS_16reverse_iteratorINS1_IP3objEEEEvE6__callB8ue170006ERKS5_, symObjAddr: 0x2FD4, symBinAddr: 0x100003628, symSize: 0x38 }
  - { offsetInCU: 0xBFF0, offset: 0xBFF0, size: 0x8, addend: 0x0, symName: __ZNKSt3__116reverse_iteratorINS0_IP3objEEEptB8ue170006Ev, symObjAddr: 0x300C, symBinAddr: 0x100003660, symSize: 0x24 }
  - { offsetInCU: 0xC015, offset: 0xC015, size: 0x8, addend: 0x0, symName: __ZNKSt3__116reverse_iteratorINS0_IP3objEEEdeB8ue170006Ev, symObjAddr: 0x3030, symBinAddr: 0x100003684, symSize: 0x34 }
  - { offsetInCU: 0xC048, offset: 0xC048, size: 0x8, addend: 0x0, symName: __ZNSt3__116reverse_iteratorIP3objEmmB8ue170006Ev, symObjAddr: 0x3064, symBinAddr: 0x1000036B8, symSize: 0x20 }
  - { offsetInCU: 0xC06D, offset: 0xC06D, size: 0x8, addend: 0x0, symName: __ZNSt3__116reverse_iteratorINS0_IP3objEEEC2B8ue170006ES3_, symObjAddr: 0x3084, symBinAddr: 0x1000036D8, symSize: 0x2C }
  - { offsetInCU: 0xC0A4, offset: 0xC0A4, size: 0x8, addend: 0x0, symName: __ZNSt3__116reverse_iteratorIP3objEC2B8ue170006ES2_, symObjAddr: 0x30B0, symBinAddr: 0x100003704, symSize: 0x28 }
  - { offsetInCU: 0xC0DB, offset: 0xC0DB, size: 0x8, addend: 0x0, symName: __ZNSt3__114__split_bufferI3objRNS_9allocatorIS1_EEED2Ev, symObjAddr: 0x30D8, symBinAddr: 0x10000372C, symSize: 0x8C }
  - { offsetInCU: 0xC106, offset: 0xC106, size: 0x8, addend: 0x0, symName: __ZNSt3__114__split_bufferI3objRNS_9allocatorIS1_EEE5clearB8ue170006Ev, symObjAddr: 0x3164, symBinAddr: 0x1000037B8, symSize: 0x28 }
  - { offsetInCU: 0xC12B, offset: 0xC12B, size: 0x8, addend: 0x0, symName: __ZNKSt3__114__split_bufferI3objRNS_9allocatorIS1_EEE8capacityB8ue170006Ev, symObjAddr: 0x318C, symBinAddr: 0x1000037E0, symSize: 0x40 }
  - { offsetInCU: 0xC150, offset: 0xC150, size: 0x8, addend: 0x0, symName: __ZNSt3__114__split_bufferI3objRNS_9allocatorIS1_EEE17__destruct_at_endB8ue170006EPS1_, symObjAddr: 0x31CC, symBinAddr: 0x100003820, symSize: 0x2C }
  - { offsetInCU: 0xC182, offset: 0xC182, size: 0x8, addend: 0x0, symName: __ZNSt3__114__split_bufferI3objRNS_9allocatorIS1_EEE17__destruct_at_endB8ue170006EPS1_NS_17integral_constantIbLb0EEE, symObjAddr: 0x31F8, symBinAddr: 0x10000384C, symSize: 0x80 }
  - { offsetInCU: 0xC1C2, offset: 0xC1C2, size: 0x8, addend: 0x0, symName: __ZNKSt3__114__split_bufferI3objRNS_9allocatorIS1_EEE9__end_capB8ue170006Ev, symObjAddr: 0x3278, symBinAddr: 0x1000038CC, symSize: 0x28 }
  - { offsetInCU: 0xC1E7, offset: 0xC1E7, size: 0x8, addend: 0x0, symName: __ZNKSt3__117__compressed_pairIP3objRNS_9allocatorIS1_EEE5firstB8ue170006Ev, symObjAddr: 0x32A0, symBinAddr: 0x1000038F4, symSize: 0x24 }
...
