---
triple:          'arm64-apple-darwin'
binary-path:     '/Users/kimtaeju/Desktop/algorithm/chapter29/HANOI4B'
relocations:
  - { offsetInCU: 0x3F, offset: 0x3F, size: 0x8, addend: 0x0, symName: _costs, symObjAddr: 0x5A3C8, symBinAddr: 0x100010000, symSize: 0x0 }
  - { offsetInCU: 0x2955, offset: 0x2955, size: 0x8, addend: 0x0, symName: __ZNSt3__1L19piecewise_constructE, symObjAddr: 0x9F8B, symBinAddr: 0x10000B99F, symSize: 0x0 }
  - { offsetInCU: 0xB44D, offset: 0xB44D, size: 0x8, addend: 0x0, symName: __ZNSt3__1eqB8ue170006ERKNS_14__map_iteratorINS_15__tree_iteratorINS_12__value_typeIxiEEPNS_11__tree_nodeIS3_PvEElEEEESB_, symObjAddr: 0xC28, symBinAddr: 0x1000023BC, symSize: 0x30 }
  - { offsetInCU: 0xC0C5, offset: 0xC0C5, size: 0x8, addend: 0x0, symName: __ZNSt3__14endlB8ue170006IcNS_11char_traitsIcEEEERNS_13basic_ostreamIT_T0_EES7_, symObjAddr: 0xF4C, symBinAddr: 0x1000026E0, symSize: 0x58 }
  - { offsetInCU: 0xC105, offset: 0xC105, size: 0x8, addend: 0x0, symName: __ZNSt3__1neB8ue170006ERKNS_16__deque_iteratorIxPxRxPS1_lLl512EEES6_, symObjAddr: 0x1548, symBinAddr: 0x100002CDC, symSize: 0x34 }
  - { offsetInCU: 0xC142, offset: 0xC142, size: 0x8, addend: 0x0, symName: __ZNSt3__1eqB8ue170006ERKNS_16__deque_iteratorIxPxRxPS1_lLl512EEES6_, symObjAddr: 0x18A0, symBinAddr: 0x100003034, symSize: 0x30 }
  - { offsetInCU: 0xC17F, offset: 0xC17F, size: 0x8, addend: 0x0, symName: __ZNSt3__112__to_addressB8ue170006IxEEPT_S2_, symObjAddr: 0x1F30, symBinAddr: 0x1000036C4, symSize: 0x14 }
  - { offsetInCU: 0xC1B4, offset: 0xC1B4, size: 0x8, addend: 0x0, symName: __ZNSt3__119__libcpp_deallocateB8ue170006EPvmm, symObjAddr: 0x209C, symBinAddr: 0x100003830, symSize: 0x30 }
  - { offsetInCU: 0xC1FC, offset: 0xC1FC, size: 0x8, addend: 0x0, symName: __ZNSt3__127__do_deallocate_handle_sizeB8ue170006IJEEEvPvmDpT_, symObjAddr: 0x20CC, symBinAddr: 0x100003860, symSize: 0x28 }
  - { offsetInCU: 0xC23A, offset: 0xC23A, size: 0x8, addend: 0x0, symName: __ZNSt3__124__libcpp_operator_deleteB8ue170006IJPvEEEvDpT_, symObjAddr: 0x20F4, symBinAddr: 0x100003888, symSize: 0x24 }
  - { offsetInCU: 0xC26F, offset: 0xC26F, size: 0x8, addend: 0x0, symName: __ZNSt3__112__to_addressB8ue170006IPxEEPT_S3_, symObjAddr: 0x2378, symBinAddr: 0x100003B0C, symSize: 0x14 }
  - { offsetInCU: 0xC2D7, offset: 0xC2D7, size: 0x8, addend: 0x0, symName: __ZNSt3__122__make_exception_guardB8ue170006INS_6vectorINS1_IxNS_9allocatorIxEEEENS2_IS4_EEE16__destroy_vectorEEENS_28__exception_guard_exceptionsIT_EES9_, symObjAddr: 0x2C28, symBinAddr: 0x1000043BC, symSize: 0x40 }
  - { offsetInCU: 0xC30C, offset: 0xC30C, size: 0x8, addend: 0x0, symName: __ZNSt3__119__allocate_at_leastB8ue170006INS_9allocatorINS_6vectorIxNS1_IxEEEEEEEENS_19__allocation_resultINS_16allocator_traitsIT_E7pointerEEERS8_m, symObjAddr: 0x301C, symBinAddr: 0x1000047B0, symSize: 0x40 }
  - { offsetInCU: 0xC34F, offset: 0xC34F, size: 0x8, addend: 0x0, symName: __ZNSt3__13minB8ue170006ImEERKT_S3_S3_, symObjAddr: 0x3174, symBinAddr: 0x100004908, symSize: 0x2C }
  - { offsetInCU: 0xC593, offset: 0xC593, size: 0x8, addend: 0x0, symName: __ZNSt3__13minB8ue170006ImNS_6__lessIvvEEEERKT_S5_S5_T0_, symObjAddr: 0x3200, symBinAddr: 0x100004994, symSize: 0x54 }
  - { offsetInCU: 0xC632, offset: 0xC632, size: 0x8, addend: 0x0, symName: __ZNSt3__120__throw_length_errorB8ue170006EPKc, symObjAddr: 0x32E0, symBinAddr: 0x100004A74, symSize: 0x64 }
  - { offsetInCU: 0xC65C, offset: 0xC65C, size: 0x8, addend: 0x0, symName: __ZNSt3__117__libcpp_allocateB8ue170006Emm, symObjAddr: 0x3454, symBinAddr: 0x100004BE8, symSize: 0x28 }
  - { offsetInCU: 0xC699, offset: 0xC699, size: 0x8, addend: 0x0, symName: __ZNSt3__121__libcpp_operator_newB8ue170006IJmEEEPvDpT_, symObjAddr: 0x347C, symBinAddr: 0x100004C10, symSize: 0x24 }
  - { offsetInCU: 0xC6D2, offset: 0xC6D2, size: 0x8, addend: 0x0, symName: __ZNSt3__112__to_addressB8ue170006INS_6vectorIxNS_9allocatorIxEEEEEEPT_S6_, symObjAddr: 0x3598, symBinAddr: 0x100004D2C, symSize: 0x14 }
  - { offsetInCU: 0xC707, offset: 0xC707, size: 0x8, addend: 0x0, symName: __ZNSt3__13maxB8ue170006ImEERKT_S3_S3_, symObjAddr: 0x4588, symBinAddr: 0x100005D1C, symSize: 0x2C }
  - { offsetInCU: 0xC74A, offset: 0xC74A, size: 0x8, addend: 0x0, symName: __ZNSt3__13maxB8ue170006ImNS_6__lessIvvEEEERKT_S5_S5_T0_, symObjAddr: 0x464C, symBinAddr: 0x100005DE0, symSize: 0x54 }
  - { offsetInCU: 0xC7A4, offset: 0xC7A4, size: 0x8, addend: 0x0, symName: __ZNSt3__119__allocate_at_leastB8ue170006INS_9allocatorIxEEEENS_19__allocation_resultINS_16allocator_traitsIT_E7pointerEEERS5_m, symObjAddr: 0x47B0, symBinAddr: 0x100005F44, symSize: 0x40 }
  - { offsetInCU: 0xC7E7, offset: 0xC7E7, size: 0x8, addend: 0x0, symName: __ZNSt3__142__uninitialized_allocator_move_if_noexceptB8ue170006INS_9allocatorIxEENS_16reverse_iteratorIPxEES5_xvEET1_RT_T0_S9_S6_, symObjAddr: 0x4964, symBinAddr: 0x1000060F8, symSize: 0x78 }
  - { offsetInCU: 0xC864, offset: 0xC864, size: 0x8, addend: 0x0, symName: __ZNSt3__14swapB8ue170006IPxEENS_9enable_ifIXaasr21is_move_constructibleIT_EE5valuesr18is_move_assignableIS3_EE5valueEvE4typeERS3_S6_, symObjAddr: 0x4A28, symBinAddr: 0x1000061BC, symSize: 0x3C }
  - { offsetInCU: 0xC8B5, offset: 0xC8B5, size: 0x8, addend: 0x0, symName: __ZNSt3__14moveB8ue170006INS_16reverse_iteratorIPxEES3_EET0_T_S5_S4_, symObjAddr: 0x4B10, symBinAddr: 0x1000062A4, symSize: 0x78 }
  - { offsetInCU: 0xC90F, offset: 0xC90F, size: 0x8, addend: 0x0, symName: __ZNSt3__16__moveB8ue170006INS_17_ClassicAlgPolicyENS_16reverse_iteratorIPxEES4_S4_EENS_4pairIT0_T2_EES6_T1_S7_, symObjAddr: 0x4B88, symBinAddr: 0x10000631C, symSize: 0x64 }
  - { offsetInCU: 0xC97B, offset: 0xC97B, size: 0x8, addend: 0x0, symName: __ZNSt3__123__dispatch_copy_or_moveB8ue170006INS_17_ClassicAlgPolicyENS_11__move_loopIS1_EENS_14__move_trivialENS_16reverse_iteratorIPxEES7_S7_EENS_4pairIT2_T4_EES9_T3_SA_, symObjAddr: 0x4BEC, symBinAddr: 0x100006380, symSize: 0x64 }
  - { offsetInCU: 0xC9F9, offset: 0xC9F9, size: 0x8, addend: 0x0, symName: __ZNSt3__121__unwrap_and_dispatchB8ue170006INS_10__overloadINS_11__move_loopINS_17_ClassicAlgPolicyEEENS_14__move_trivialEEENS_16reverse_iteratorIPxEES9_S9_Li0EEENS_4pairIT0_T2_EESB_T1_SC_, symObjAddr: 0x4C50, symBinAddr: 0x1000063E4, symSize: 0x12C }
  - { offsetInCU: 0xCA89, offset: 0xCA89, size: 0x8, addend: 0x0, symName: __ZNSt3__114__unwrap_rangeB8ue170006INS_16reverse_iteratorIPxEES3_EENS_4pairIT0_S5_EET_S7_, symObjAddr: 0x4D7C, symBinAddr: 0x100006510, symSize: 0x84 }
  - { offsetInCU: 0xCC04, offset: 0xCC04, size: 0x8, addend: 0x0, symName: __ZNSt3__113__unwrap_iterB8ue170006INS_16reverse_iteratorIPxEENS_18__unwrap_iter_implIS3_Lb0EEELi0EEEDTclsrT0_8__unwrapclsr3stdE7declvalIT_EEEES7_, symObjAddr: 0x4EA0, symBinAddr: 0x100006634, symSize: 0x44 }
  - { offsetInCU: 0xCC48, offset: 0xCC48, size: 0x8, addend: 0x0, symName: __ZNSt3__19make_pairB8ue170006INS_16reverse_iteratorIPxEES3_EENS_4pairINS_18__unwrap_ref_decayIT_E4typeENS5_IT0_E4typeEEEOS6_OS9_, symObjAddr: 0x4EE4, symBinAddr: 0x100006678, symSize: 0x38 }
  - { offsetInCU: 0xCC97, offset: 0xCC97, size: 0x8, addend: 0x0, symName: __ZNSt3__114__rewrap_rangeB8ue170006INS_16reverse_iteratorIPxEES3_EET_S4_T0_, symObjAddr: 0x4F1C, symBinAddr: 0x1000066B0, symSize: 0x5C }
  - { offsetInCU: 0xCCE3, offset: 0xCCE3, size: 0x8, addend: 0x0, symName: __ZNSt3__113__rewrap_iterB8ue170006INS_16reverse_iteratorIPxEES3_NS_18__unwrap_iter_implIS3_Lb0EEEEET_S6_T0_, symObjAddr: 0x4F78, symBinAddr: 0x10000670C, symSize: 0x74 }
  - { offsetInCU: 0xCD38, offset: 0xCD38, size: 0x8, addend: 0x0, symName: __ZNSt3__1neB8ue170006IPxS1_EEbRKNS_16reverse_iteratorIT_EERKNS2_IT0_EE, symObjAddr: 0x4FEC, symBinAddr: 0x100006780, symSize: 0x48 }
  - { offsetInCU: 0xD1DB, offset: 0xD1DB, size: 0x8, addend: 0x0, symName: __ZNSt3__14swapB8ue170006IPPxEENS_9enable_ifIXaasr21is_move_constructibleIT_EE5valuesr18is_move_assignableIS4_EE5valueEvE4typeERS4_S7_, symObjAddr: 0x6B9C, symBinAddr: 0x100008330, symSize: 0x3C }
  - { offsetInCU: 0xD22C, offset: 0xD22C, size: 0x8, addend: 0x0, symName: __ZNSt3__14moveB8ue170006IPPxS2_EET0_T_S4_S3_, symObjAddr: 0x6C80, symBinAddr: 0x100008414, symSize: 0x40 }
  - { offsetInCU: 0xD2A2, offset: 0xD2A2, size: 0x8, addend: 0x0, symName: __ZNSt3__16__moveB8ue170006INS_17_ClassicAlgPolicyEPPxS3_S3_EENS_4pairIT0_T2_EES5_T1_S6_, symObjAddr: 0x6D88, symBinAddr: 0x10000851C, symSize: 0x44 }
  - { offsetInCU: 0xD30E, offset: 0xD30E, size: 0x8, addend: 0x0, symName: __ZNSt3__123__dispatch_copy_or_moveB8ue170006INS_17_ClassicAlgPolicyENS_11__move_loopIS1_EENS_14__move_trivialEPPxS6_S6_EENS_4pairIT2_T4_EES8_T3_S9_, symObjAddr: 0x6DCC, symBinAddr: 0x100008560, symSize: 0x44 }
  - { offsetInCU: 0xD38C, offset: 0xD38C, size: 0x8, addend: 0x0, symName: __ZNSt3__121__unwrap_and_dispatchB8ue170006INS_10__overloadINS_11__move_loopINS_17_ClassicAlgPolicyEEENS_14__move_trivialEEEPPxS8_S8_Li0EEENS_4pairIT0_T2_EESA_T1_SB_, symObjAddr: 0x6E10, symBinAddr: 0x1000085A4, symSize: 0xB4 }
  - { offsetInCU: 0xD41A, offset: 0xD41A, size: 0x8, addend: 0x0, symName: __ZNSt3__114__unwrap_rangeB8ue170006IPPxS2_EENS_4pairIT0_S4_EET_S6_, symObjAddr: 0x6EC4, symBinAddr: 0x100008658, symSize: 0x60 }
  - { offsetInCU: 0xD5DE, offset: 0xD5DE, size: 0x8, addend: 0x0, symName: __ZNSt3__113__unwrap_iterB8ue170006IPPxNS_18__unwrap_iter_implIS2_Lb1EEELi0EEEDTclsrT0_8__unwrapclsr3stdE7declvalIT_EEEES6_, symObjAddr: 0x6F6C, symBinAddr: 0x100008700, symSize: 0x24 }
  - { offsetInCU: 0xD622, offset: 0xD622, size: 0x8, addend: 0x0, symName: __ZNSt3__19make_pairB8ue170006IPPxS2_EENS_4pairINS_18__unwrap_ref_decayIT_E4typeENS4_IT0_E4typeEEEOS5_OS8_, symObjAddr: 0x6F90, symBinAddr: 0x100008724, symSize: 0x38 }
  - { offsetInCU: 0xD671, offset: 0xD671, size: 0x8, addend: 0x0, symName: __ZNSt3__114__rewrap_rangeB8ue170006IPPxS2_EET_S3_T0_, symObjAddr: 0x6FC8, symBinAddr: 0x10000875C, symSize: 0x2C }
  - { offsetInCU: 0xD6BD, offset: 0xD6BD, size: 0x8, addend: 0x0, symName: __ZNSt3__113__rewrap_iterB8ue170006IPPxS2_NS_18__unwrap_iter_implIS2_Lb1EEEEET_S5_T0_, symObjAddr: 0x6FF4, symBinAddr: 0x100008788, symSize: 0x3C }
  - { offsetInCU: 0xD712, offset: 0xD712, size: 0x8, addend: 0x0, symName: __ZNSt3__119__copy_trivial_implB8ue170006IPxS1_EENS_4pairIPT_PT0_EES4_S4_S6_, symObjAddr: 0x7030, symBinAddr: 0x1000087C4, symSize: 0x80 }
  - { offsetInCU: 0xD77A, offset: 0xD77A, size: 0x8, addend: 0x0, symName: __ZNSt3__119__constexpr_memmoveB8ue170006IPxS1_Li0EEEPT_S3_PT0_NS_15__element_countE, symObjAddr: 0x70B0, symBinAddr: 0x100008844, symSize: 0x64 }
  - { offsetInCU: 0xD7E8, offset: 0xD7E8, size: 0x8, addend: 0x0, symName: __ZNSt3__19make_pairB8ue170006IRPPxS2_EENS_4pairINS_18__unwrap_ref_decayIT_E4typeENS5_IT0_E4typeEEEOS6_OS9_, symObjAddr: 0x7114, symBinAddr: 0x1000088A8, symSize: 0x38 }
  - { offsetInCU: 0xD88A, offset: 0xD88A, size: 0x8, addend: 0x0, symName: __ZNSt3__18distanceB8ue170006INS_13move_iteratorIPPxEEEENS_15iterator_traitsIT_E15difference_typeES6_S6_, symObjAddr: 0x737C, symBinAddr: 0x100008B10, symSize: 0x3C }
  - { offsetInCU: 0xD8CD, offset: 0xD8CD, size: 0x8, addend: 0x0, symName: __ZNSt3__110__distanceB8ue170006INS_13move_iteratorIPPxEEEENS_15iterator_traitsIT_E15difference_typeES6_S6_NS_26random_access_iterator_tagE, symObjAddr: 0x7580, symBinAddr: 0x100008D14, symSize: 0x30 }
  - { offsetInCU: 0xD91A, offset: 0xD91A, size: 0x8, addend: 0x0, symName: __ZNSt3__1miB8ue170006IPPxS2_EEDTmicldtfp_4baseEcldtfp0_4baseEERKNS_13move_iteratorIT_EERKNS4_IT0_EE, symObjAddr: 0x75B0, symBinAddr: 0x100008D44, symSize: 0x48 }
  - { offsetInCU: 0xD969, offset: 0xD969, size: 0x8, addend: 0x0, symName: __ZNSt3__113move_backwardB8ue170006IPPxS2_EET0_T_S4_S3_, symObjAddr: 0x7658, symBinAddr: 0x100008DEC, symSize: 0x40 }
  - { offsetInCU: 0xD9C3, offset: 0xD9C3, size: 0x8, addend: 0x0, symName: __ZNSt3__115__move_backwardB8ue170006INS_17_ClassicAlgPolicyEPPxS3_S3_EENS_4pairIT0_T2_EES5_T1_S6_, symObjAddr: 0x7698, symBinAddr: 0x100008E2C, symSize: 0x44 }
  - { offsetInCU: 0xDA2F, offset: 0xDA2F, size: 0x8, addend: 0x0, symName: __ZNSt3__123__dispatch_copy_or_moveB8ue170006INS_17_ClassicAlgPolicyENS_20__move_backward_loopIS1_EENS_23__move_backward_trivialEPPxS6_S6_EENS_4pairIT2_T4_EES8_T3_S9_, symObjAddr: 0x76DC, symBinAddr: 0x100008E70, symSize: 0x44 }
  - { offsetInCU: 0xDAAD, offset: 0xDAAD, size: 0x8, addend: 0x0, symName: __ZNSt3__121__unwrap_and_dispatchB8ue170006INS_10__overloadINS_20__move_backward_loopINS_17_ClassicAlgPolicyEEENS_23__move_backward_trivialEEEPPxS8_S8_Li0EEENS_4pairIT0_T2_EESA_T1_SB_, symObjAddr: 0x7720, symBinAddr: 0x100008EB4, symSize: 0xB4 }
  - { offsetInCU: 0xDB81, offset: 0xDB81, size: 0x8, addend: 0x0, symName: __ZNSt3__128__copy_backward_trivial_implB8ue170006IPxS1_EENS_4pairIPT_PT0_EES4_S4_S6_, symObjAddr: 0x781C, symBinAddr: 0x100008FB0, symSize: 0x90 }
  - { offsetInCU: 0xDBE9, offset: 0xDBE9, size: 0x8, addend: 0x0, symName: __ZNSt3__19make_pairB8ue170006IRPPxS3_EENS_4pairINS_18__unwrap_ref_decayIT_E4typeENS5_IT0_E4typeEEEOS6_OS9_, symObjAddr: 0x78AC, symBinAddr: 0x100009040, symSize: 0x38 }
  - { offsetInCU: 0xDC38, offset: 0xDC38, size: 0x8, addend: 0x0, symName: __ZNSt3__119__allocate_at_leastB8ue170006INS_9allocatorIPxEEEENS_19__allocation_resultINS_16allocator_traitsIT_E7pointerEEERS6_m, symObjAddr: 0x7A64, symBinAddr: 0x1000091F8, symSize: 0x40 }
  - { offsetInCU: 0xDCB2, offset: 0xDCB2, size: 0x8, addend: 0x0, symName: __ZNSt3__116forward_as_tupleB8ue170006IJRKxEEENS_5tupleIJDpOT_EEES6_, symObjAddr: 0x8184, symBinAddr: 0x100009918, symSize: 0x2C }
  - { offsetInCU: 0xDCEB, offset: 0xDCEB, size: 0x8, addend: 0x0, symName: __ZNSt3__116forward_as_tupleB8ue170006IJEEENS_5tupleIJDpOT_EEES4_, symObjAddr: 0x81B0, symBinAddr: 0x100009944, symSize: 0x4 }
  - { offsetInCU: 0xDD38, offset: 0xDD38, size: 0x8, addend: 0x0, symName: __ZNSt3__13getB8ue170006ILm0EJRKxEEERNS_13tuple_elementIXT_ENS_5tupleIJDpT0_EEEE4typeERS7_, symObjAddr: 0x8BEC, symBinAddr: 0x10000A380, symSize: 0x24 }
  - { offsetInCU: 0xDD7B, offset: 0xDD7B, size: 0x8, addend: 0x0, symName: __ZNSt3__127__tree_balance_after_insertB8ue170006IPNS_16__tree_node_baseIPvEEEEvT_S5_, symObjAddr: 0x8C9C, symBinAddr: 0x10000A430, symSize: 0x32C }
  - { offsetInCU: 0xDDF7, offset: 0xDDF7, size: 0x8, addend: 0x0, symName: __ZNSt3__120__tree_is_left_childB8ue170006IPNS_16__tree_node_baseIPvEEEEbT_, symObjAddr: 0x9008, symBinAddr: 0x10000A79C, symSize: 0x2C }
  - { offsetInCU: 0xDE2C, offset: 0xDE2C, size: 0x8, addend: 0x0, symName: __ZNSt3__118__tree_left_rotateB8ue170006IPNS_16__tree_node_baseIPvEEEEvT_, symObjAddr: 0x9034, symBinAddr: 0x10000A7C8, symSize: 0xD8 }
  - { offsetInCU: 0xDE6E, offset: 0xDE6E, size: 0x8, addend: 0x0, symName: __ZNSt3__119__tree_right_rotateB8ue170006IPNS_16__tree_node_baseIPvEEEEvT_, symObjAddr: 0x910C, symBinAddr: 0x10000A8A0, symSize: 0xCC }
  - { offsetInCU: 0xDF07, offset: 0xDF07, size: 0x8, addend: 0x0, symName: __ZNSt3__1neB8ue170006ERKNS_15__tree_iteratorINS_12__value_typeIxiEEPNS_11__tree_nodeIS2_PvEElEES9_, symObjAddr: 0x9980, symBinAddr: 0x10000B114, symSize: 0x34 }
  - { offsetInCU: 0xDF44, offset: 0xDF44, size: 0x8, addend: 0x0, symName: __ZNSt3__1eqB8ue170006ERKNS_15__tree_iteratorINS_12__value_typeIxiEEPNS_11__tree_nodeIS2_PvEElEES9_, symObjAddr: 0x9A64, symBinAddr: 0x10000B1F8, symSize: 0x30 }
  - { offsetInCU: 0xDFB4, offset: 0xDFB4, size: 0x8, addend: 0x0, symName: __ZNSt3__19use_facetB8ue170006INS_5ctypeIcEEEERKT_RKNS_6localeE, symObjAddr: 0x9B4C, symBinAddr: 0x10000B2E0, symSize: 0x2C }
  - { offsetInCU: 0xE8E2, offset: 0xE8E2, size: 0x8, addend: 0x0, symName: __ZSt28__throw_bad_array_new_lengthB8ue170006v, symObjAddr: 0x3420, symBinAddr: 0x100004BB4, symSize: 0x34 }
  - { offsetInCU: 0xF3FB, offset: 0xF3FB, size: 0x8, addend: 0x0, symName: __ZNSt3__16vectorIxNS_9allocatorIxEEE26__swap_out_circular_bufferERNS_14__split_bufferIxRS2_EE, symObjAddr: 0x43D0, symBinAddr: 0x100005B64, symSize: 0x110 }
  - { offsetInCU: 0x1188D, offset: 0x1188D, size: 0x8, addend: 0x0, symName: __ZNSt3__13mapIxiNS_4lessIxEENS_9allocatorINS_4pairIKxiEEEEEC1B8ue170006Ev, symObjAddr: 0x0, symBinAddr: 0x100001794, symSize: 0x2C }
  - { offsetInCU: 0x118B7, offset: 0x118B7, size: 0x8, addend: 0x0, symName: __ZNSt3__13mapIxiNS_4lessIxEENS_9allocatorINS_4pairIKxiEEEEED1B8ue170006Ev, symObjAddr: 0x2C, symBinAddr: 0x1000017C0, symSize: 0x2C }
  - { offsetInCU: 0x118E0, offset: 0x118E0, size: 0x8, addend: 0x0, symName: __Z17chageStackToStateRKNSt3__16vectorINS0_IxNS_9allocatorIxEEEENS1_IS3_EEEE, symObjAddr: 0x58, symBinAddr: 0x1000017EC, symSize: 0xE0 }
  - { offsetInCU: 0x11961, offset: 0x11961, size: 0x8, addend: 0x0, symName: __ZNKSt3__16vectorINS0_IxNS_9allocatorIxEEEENS1_IS3_EEEixB8ue170006Em, symObjAddr: 0x138, symBinAddr: 0x1000018CC, symSize: 0x2C }
  - { offsetInCU: 0x11998, offset: 0x11998, size: 0x8, addend: 0x0, symName: __ZNKSt3__16vectorIxNS_9allocatorIxEEE4sizeB8ue170006Ev, symObjAddr: 0x164, symBinAddr: 0x1000018F8, symSize: 0x28 }
  - { offsetInCU: 0x119BE, offset: 0x119BE, size: 0x8, addend: 0x0, symName: __ZNKSt3__16vectorIxNS_9allocatorIxEEEixB8ue170006Em, symObjAddr: 0x18C, symBinAddr: 0x100001920, symSize: 0x24 }
  - { offsetInCU: 0x119F4, offset: 0x119F4, size: 0x8, addend: 0x0, symName: __Z8possiblex, symObjAddr: 0x1B0, symBinAddr: 0x100001944, symSize: 0x2B0 }
  - { offsetInCU: 0x11ACD, offset: 0x11ACD, size: 0x8, addend: 0x0, symName: __ZNSt3__16vectorINS0_IxNS_9allocatorIxEEEENS1_IS3_EEEC1Em, symObjAddr: 0x460, symBinAddr: 0x100001BF4, symSize: 0x34 }
  - { offsetInCU: 0x11B08, offset: 0x11B08, size: 0x8, addend: 0x0, symName: __ZNSt3__16vectorIxNS_9allocatorIxEEEC1B8ue170006Ev, symObjAddr: 0x494, symBinAddr: 0x100001C28, symSize: 0x2C }
  - { offsetInCU: 0x11B32, offset: 0x11B32, size: 0x8, addend: 0x0, symName: __ZNSt3__16vectorINS0_IxNS_9allocatorIxEEEENS1_IS3_EEEixB8ue170006Em, symObjAddr: 0x4C0, symBinAddr: 0x100001C54, symSize: 0x2C }
  - { offsetInCU: 0x11B69, offset: 0x11B69, size: 0x8, addend: 0x0, symName: __ZNSt3__16vectorIxNS_9allocatorIxEEE9push_backB8ue170006ERKx, symObjAddr: 0x4EC, symBinAddr: 0x100001C80, symSize: 0x6C }
  - { offsetInCU: 0x11BA0, offset: 0x11BA0, size: 0x8, addend: 0x0, symName: __ZNSt3__16vectorIxNS_9allocatorIxEEE4backB8ue170006Ev, symObjAddr: 0x558, symBinAddr: 0x100001CEC, symSize: 0x1C }
  - { offsetInCU: 0x11BC6, offset: 0x11BC6, size: 0x8, addend: 0x0, symName: __ZNSt3__16vectorIxNS_9allocatorIxEEE8pop_backEv, symObjAddr: 0x574, symBinAddr: 0x100001D08, symSize: 0x2C }
  - { offsetInCU: 0x11BEE, offset: 0x11BEE, size: 0x8, addend: 0x0, symName: __ZNSt3__16vectorIxNS_9allocatorIxEEE9push_backB8ue170006EOx, symObjAddr: 0x5A0, symBinAddr: 0x100001D34, symSize: 0x6C }
  - { offsetInCU: 0x11C25, offset: 0x11C25, size: 0x8, addend: 0x0, symName: __ZNSt3__16vectorIxNS_9allocatorIxEEED1B8ue170006Ev, symObjAddr: 0x60C, symBinAddr: 0x100001DA0, symSize: 0x2C }
  - { offsetInCU: 0x11C4F, offset: 0x11C4F, size: 0x8, addend: 0x0, symName: __ZNSt3__16vectorINS0_IxNS_9allocatorIxEEEENS1_IS3_EEED1B8ue170006Ev, symObjAddr: 0x638, symBinAddr: 0x100001DCC, symSize: 0x2C }
  - { offsetInCU: 0x11C78, offset: 0x11C78, size: 0x8, addend: 0x0, symName: __Z3sgni, symObjAddr: 0x664, symBinAddr: 0x100001DF8, symSize: 0x54 }
  - { offsetInCU: 0x11CA4, offset: 0x11CA4, size: 0x8, addend: 0x0, symName: __Z4incri, symObjAddr: 0x6B8, symBinAddr: 0x100001E4C, symSize: 0x48 }
  - { offsetInCU: 0x11CD0, offset: 0x11CD0, size: 0x8, addend: 0x0, symName: __Z7hanoi4bxx, symObjAddr: 0x700, symBinAddr: 0x100001E94, symSize: 0x37C }
  - { offsetInCU: 0x11DA7, offset: 0x11DA7, size: 0x8, addend: 0x0, symName: __ZNSt3__15queueIxNS_5dequeIxNS_9allocatorIxEEEEEC1B8ue170006Ev, symObjAddr: 0xA7C, symBinAddr: 0x100002210, symSize: 0x2C }
  - { offsetInCU: 0x11DD1, offset: 0x11DD1, size: 0x8, addend: 0x0, symName: __ZNSt3__15queueIxNS_5dequeIxNS_9allocatorIxEEEEE4pushB8ue170006ERKx, symObjAddr: 0xAA8, symBinAddr: 0x10000223C, symSize: 0x2C }
  - { offsetInCU: 0x11E06, offset: 0x11E06, size: 0x8, addend: 0x0, symName: __ZNSt3__13mapIxiNS_4lessIxEENS_9allocatorINS_4pairIKxiEEEEEixERS5_, symObjAddr: 0xAD4, symBinAddr: 0x100002268, symSize: 0x80 }
  - { offsetInCU: 0x11E3D, offset: 0x11E3D, size: 0x8, addend: 0x0, symName: __ZNKSt3__15queueIxNS_5dequeIxNS_9allocatorIxEEEEE5emptyB8ue170006Ev, symObjAddr: 0xB54, symBinAddr: 0x1000022E8, symSize: 0x28 }
  - { offsetInCU: 0x11E63, offset: 0x11E63, size: 0x8, addend: 0x0, symName: __ZNSt3__15queueIxNS_5dequeIxNS_9allocatorIxEEEEE5frontB8ue170006Ev, symObjAddr: 0xB7C, symBinAddr: 0x100002310, symSize: 0x24 }
  - { offsetInCU: 0x11E89, offset: 0x11E89, size: 0x8, addend: 0x0, symName: __ZNSt3__15queueIxNS_5dequeIxNS_9allocatorIxEEEEE3popB8ue170006Ev, symObjAddr: 0xBA0, symBinAddr: 0x100002334, symSize: 0x24 }
  - { offsetInCU: 0x11EAF, offset: 0x11EAF, size: 0x8, addend: 0x0, symName: __ZNSt3__13mapIxiNS_4lessIxEENS_9allocatorINS_4pairIKxiEEEEE4findB8ue170006ERS5_, symObjAddr: 0xBC4, symBinAddr: 0x100002358, symSize: 0x40 }
  - { offsetInCU: 0x11EE4, offset: 0x11EE4, size: 0x8, addend: 0x0, symName: __ZNSt3__16vectorIxNS_9allocatorIxEEEixB8ue170006Em, symObjAddr: 0xC04, symBinAddr: 0x100002398, symSize: 0x24 }
  - { offsetInCU: 0x11F1B, offset: 0x11F1B, size: 0x8, addend: 0x0, symName: __ZNSt3__13mapIxiNS_4lessIxEENS_9allocatorINS_4pairIKxiEEEEE3endB8ue170006Ev, symObjAddr: 0xC58, symBinAddr: 0x1000023EC, symSize: 0x38 }
  - { offsetInCU: 0x11F41, offset: 0x11F41, size: 0x8, addend: 0x0, symName: __ZNKSt3__114__map_iteratorINS_15__tree_iteratorINS_12__value_typeIxiEEPNS_11__tree_nodeIS3_PvEElEEEptB8ue170006Ev, symObjAddr: 0xC90, symBinAddr: 0x100002424, symSize: 0x2C }
  - { offsetInCU: 0x11F67, offset: 0x11F67, size: 0x8, addend: 0x0, symName: __ZNSt3__15queueIxNS_5dequeIxNS_9allocatorIxEEEEED1Ev, symObjAddr: 0xCBC, symBinAddr: 0x100002450, symSize: 0x2C }
  - { offsetInCU: 0x11F94, offset: 0x11F94, size: 0x8, addend: 0x0, symName: _main, symObjAddr: 0xCE8, symBinAddr: 0x10000247C, symSize: 0x238 }
  - { offsetInCU: 0x121AF, offset: 0x121AF, size: 0x8, addend: 0x0, symName: __ZNSt3__113basic_ostreamIcNS_11char_traitsIcEEElsB8ue170006EPFRS3_S4_E, symObjAddr: 0xF20, symBinAddr: 0x1000026B4, symSize: 0x2C }
  - { offsetInCU: 0x121E3, offset: 0x121E3, size: 0x8, addend: 0x0, symName: __ZNSt3__15queueIxNS_5dequeIxNS_9allocatorIxEEEEED2Ev, symObjAddr: 0xFA4, symBinAddr: 0x100002738, symSize: 0x2C }
  - { offsetInCU: 0x12210, offset: 0x12210, size: 0x8, addend: 0x0, symName: __ZNSt3__15dequeIxNS_9allocatorIxEEED1B8ue170006Ev, symObjAddr: 0xFD0, symBinAddr: 0x100002764, symSize: 0x2C }
  - { offsetInCU: 0x1223A, offset: 0x1223A, size: 0x8, addend: 0x0, symName: __ZNSt3__15dequeIxNS_9allocatorIxEEED2B8ue170006Ev, symObjAddr: 0xFFC, symBinAddr: 0x100002790, symSize: 0xA4 }
  - { offsetInCU: 0x12290, offset: 0x12290, size: 0x8, addend: 0x0, symName: __ZNSt3__15dequeIxNS_9allocatorIxEEE5clearEv, symObjAddr: 0x10A0, symBinAddr: 0x100002834, symSize: 0x194 }
  - { offsetInCU: 0x122EC, offset: 0x122EC, size: 0x8, addend: 0x0, symName: __ZNKSt3__15dequeIxNS_9allocatorIxEEE17__annotate_deleteB8ue170006Ev, symObjAddr: 0x1234, symBinAddr: 0x1000029C8, symSize: 0xE8 }
  - { offsetInCU: 0x1232F, offset: 0x1232F, size: 0x8, addend: 0x0, symName: __ZNSt3__114__split_bufferIPxNS_9allocatorIS1_EEE5beginB8ue170006Ev, symObjAddr: 0x131C, symBinAddr: 0x100002AB0, symSize: 0x18 }
  - { offsetInCU: 0x12355, offset: 0x12355, size: 0x8, addend: 0x0, symName: __ZNSt3__114__split_bufferIPxNS_9allocatorIS1_EEE3endB8ue170006Ev, symObjAddr: 0x1334, symBinAddr: 0x100002AC8, symSize: 0x18 }
  - { offsetInCU: 0x1237B, offset: 0x1237B, size: 0x8, addend: 0x0, symName: __ZNSt3__116allocator_traitsINS_9allocatorIxEEE10deallocateB8ue170006ERS2_Pxm, symObjAddr: 0x134C, symBinAddr: 0x100002AE0, symSize: 0x34 }
  - { offsetInCU: 0x123BD, offset: 0x123BD, size: 0x8, addend: 0x0, symName: __ZNSt3__15dequeIxNS_9allocatorIxEEE7__allocB8ue170006Ev, symObjAddr: 0x1380, symBinAddr: 0x100002B14, symSize: 0x28 }
  - { offsetInCU: 0x123E3, offset: 0x123E3, size: 0x8, addend: 0x0, symName: __ZNSt3__114__split_bufferIPxNS_9allocatorIS1_EEED1Ev, symObjAddr: 0x13A8, symBinAddr: 0x100002B3C, symSize: 0x2C }
  - { offsetInCU: 0x1240F, offset: 0x1240F, size: 0x8, addend: 0x0, symName: __ZNSt3__15dequeIxNS_9allocatorIxEEE5beginB8ue170006Ev, symObjAddr: 0x13D4, symBinAddr: 0x100002B68, symSize: 0xB8 }
  - { offsetInCU: 0x12444, offset: 0x12444, size: 0x8, addend: 0x0, symName: __ZNSt3__15dequeIxNS_9allocatorIxEEE3endB8ue170006Ev, symObjAddr: 0x148C, symBinAddr: 0x100002C20, symSize: 0xBC }
  - { offsetInCU: 0x12488, offset: 0x12488, size: 0x8, addend: 0x0, symName: __ZNSt3__116allocator_traitsINS_9allocatorIxEEE7destroyB8ue170006IxvEEvRS2_PT_, symObjAddr: 0x1588, symBinAddr: 0x100002D1C, symSize: 0x2C }
  - { offsetInCU: 0x124C5, offset: 0x124C5, size: 0x8, addend: 0x0, symName: __ZNKSt3__116__deque_iteratorIxPxRxPS1_lLl512EEdeB8ue170006Ev, symObjAddr: 0x15B4, symBinAddr: 0x100002D48, symSize: 0x18 }
  - { offsetInCU: 0x124EB, offset: 0x124EB, size: 0x8, addend: 0x0, symName: __ZNSt3__116__deque_iteratorIxPxRxPS1_lLl512EEppB8ue170006Ev, symObjAddr: 0x15CC, symBinAddr: 0x100002D60, symSize: 0x70 }
  - { offsetInCU: 0x12511, offset: 0x12511, size: 0x8, addend: 0x0, symName: __ZNSt3__15dequeIxNS_9allocatorIxEEE6__sizeB8ue170006Ev, symObjAddr: 0x163C, symBinAddr: 0x100002DD0, symSize: 0x28 }
  - { offsetInCU: 0x12537, offset: 0x12537, size: 0x8, addend: 0x0, symName: __ZNKSt3__114__split_bufferIPxNS_9allocatorIS1_EEE4sizeB8ue170006Ev, symObjAddr: 0x1664, symBinAddr: 0x100002DF8, symSize: 0x28 }
  - { offsetInCU: 0x1255D, offset: 0x1255D, size: 0x8, addend: 0x0, symName: __ZNSt3__114__split_bufferIPxNS_9allocatorIS1_EEE5frontB8ue170006Ev, symObjAddr: 0x168C, symBinAddr: 0x100002E20, symSize: 0x18 }
  - { offsetInCU: 0x12583, offset: 0x12583, size: 0x8, addend: 0x0, symName: __ZNSt3__114__split_bufferIPxNS_9allocatorIS1_EEE9pop_frontB8ue170006Ev, symObjAddr: 0x16A4, symBinAddr: 0x100002E38, symSize: 0x2C }
  - { offsetInCU: 0x125A9, offset: 0x125A9, size: 0x8, addend: 0x0, symName: __ZNKSt3__15dequeIxNS_9allocatorIxEEE14__annotate_newB8ue170006Em, symObjAddr: 0x16D0, symBinAddr: 0x100002E64, symSize: 0xB8 }
  - { offsetInCU: 0x125DE, offset: 0x125DE, size: 0x8, addend: 0x0, symName: __ZNKSt3__114__split_bufferIPxNS_9allocatorIS1_EEE5emptyB8ue170006Ev, symObjAddr: 0x1788, symBinAddr: 0x100002F1C, symSize: 0x28 }
  - { offsetInCU: 0x12604, offset: 0x12604, size: 0x8, addend: 0x0, symName: __ZNSt3__116__deque_iteratorIxPxRxPS1_lLl512EEC1B8ue170006ES3_S1_, symObjAddr: 0x17B0, symBinAddr: 0x100002F44, symSize: 0x3C }
  - { offsetInCU: 0x1264C, offset: 0x1264C, size: 0x8, addend: 0x0, symName: __ZNSt3__116__deque_iteratorIxPxRxPS1_lLl512EEC2B8ue170006ES3_S1_, symObjAddr: 0x17EC, symBinAddr: 0x100002F80, symSize: 0x2C }
  - { offsetInCU: 0x12694, offset: 0x12694, size: 0x8, addend: 0x0, symName: __ZNKSt3__15dequeIxNS_9allocatorIxEEE4sizeB8ue170006Ev, symObjAddr: 0x1818, symBinAddr: 0x100002FAC, symSize: 0x28 }
  - { offsetInCU: 0x126BA, offset: 0x126BA, size: 0x8, addend: 0x0, symName: __ZNKSt3__15dequeIxNS_9allocatorIxEEE6__sizeB8ue170006Ev, symObjAddr: 0x1840, symBinAddr: 0x100002FD4, symSize: 0x28 }
  - { offsetInCU: 0x126E0, offset: 0x126E0, size: 0x8, addend: 0x0, symName: __ZNKSt3__117__compressed_pairImNS_9allocatorIxEEE5firstB8ue170006Ev, symObjAddr: 0x1868, symBinAddr: 0x100002FFC, symSize: 0x24 }
  - { offsetInCU: 0x12706, offset: 0x12706, size: 0x8, addend: 0x0, symName: __ZNKSt3__122__compressed_pair_elemImLi0ELb0EE5__getB8ue170006Ev, symObjAddr: 0x188C, symBinAddr: 0x100003020, symSize: 0x14 }
  - { offsetInCU: 0x1272C, offset: 0x1272C, size: 0x8, addend: 0x0, symName: __ZNSt3__19allocatorIxE7destroyB8ue170006EPx, symObjAddr: 0x18D0, symBinAddr: 0x100003064, symSize: 0x14 }
  - { offsetInCU: 0x12760, offset: 0x12760, size: 0x8, addend: 0x0, symName: __ZNSt3__117__compressed_pairImNS_9allocatorIxEEE5firstB8ue170006Ev, symObjAddr: 0x18E4, symBinAddr: 0x100003078, symSize: 0x24 }
  - { offsetInCU: 0x12786, offset: 0x12786, size: 0x8, addend: 0x0, symName: __ZNSt3__122__compressed_pair_elemImLi0ELb0EE5__getB8ue170006Ev, symObjAddr: 0x1908, symBinAddr: 0x10000309C, symSize: 0x14 }
  - { offsetInCU: 0x127AC, offset: 0x127AC, size: 0x8, addend: 0x0, symName: __ZNSt3__114__split_bufferIPxNS_9allocatorIS1_EEE19__destruct_at_beginB8ue170006EPS1_, symObjAddr: 0x191C, symBinAddr: 0x1000030B0, symSize: 0x2C }
  - { offsetInCU: 0x127E0, offset: 0x127E0, size: 0x8, addend: 0x0, symName: __ZNSt3__114__split_bufferIPxNS_9allocatorIS1_EEE19__destruct_at_beginEPS1_NS_17integral_constantIbLb1EEE, symObjAddr: 0x1948, symBinAddr: 0x1000030DC, symSize: 0x20 }
  - { offsetInCU: 0x12820, offset: 0x12820, size: 0x8, addend: 0x0, symName: __ZNKSt3__15dequeIxNS_9allocatorIxEEE18__annotate_from_toB8ue170006EmmNS3_22__asan_annotation_typeENS3_23__asan_annotation_placeE, symObjAddr: 0x1968, symBinAddr: 0x1000030FC, symSize: 0x580 }
  - { offsetInCU: 0x129DC, offset: 0x129DC, size: 0x8, addend: 0x0, symName: __ZNKSt3__114__split_bufferIPxNS_9allocatorIS1_EEE5beginB8ue170006Ev, symObjAddr: 0x1EE8, symBinAddr: 0x10000367C, symSize: 0x18 }
  - { offsetInCU: 0x12A02, offset: 0x12A02, size: 0x8, addend: 0x0, symName: __ZNKSt3__15dequeIxNS_9allocatorIxEEE5emptyB8ue170006Ev, symObjAddr: 0x1F00, symBinAddr: 0x100003694, symSize: 0x30 }
  - { offsetInCU: 0x12A28, offset: 0x12A28, size: 0x8, addend: 0x0, symName: __ZNKSt3__15dequeIxNS_9allocatorIxEEE44__annotate_double_ended_contiguous_containerB8ue170006EPKvS5_S5_S5_S5_S5_, symObjAddr: 0x1F44, symBinAddr: 0x1000036D8, symSize: 0x28 }
  - { offsetInCU: 0x12A90, offset: 0x12A90, size: 0x8, addend: 0x0, symName: __ZNKSt3__15dequeIxNS_9allocatorIxEEE22__annotate_whole_blockB8ue170006EmNS3_22__asan_annotation_typeE, symObjAddr: 0x1F6C, symBinAddr: 0x100003700, symSize: 0xAC }
  - { offsetInCU: 0x12B01, offset: 0x12B01, size: 0x8, addend: 0x0, symName: __ZNKSt3__15dequeIxNS_9allocatorIxEEE23__annotate_poison_blockB8ue170006EPKvS5_, symObjAddr: 0x2018, symBinAddr: 0x1000037AC, symSize: 0x44 }
  - { offsetInCU: 0x12B45, offset: 0x12B45, size: 0x8, addend: 0x0, symName: __ZNSt3__19allocatorIxE10deallocateB8ue170006EPxm, symObjAddr: 0x205C, symBinAddr: 0x1000037F0, symSize: 0x40 }
  - { offsetInCU: 0x12B87, offset: 0x12B87, size: 0x8, addend: 0x0, symName: __ZNSt3__117__compressed_pairImNS_9allocatorIxEEE6secondB8ue170006Ev, symObjAddr: 0x2118, symBinAddr: 0x1000038AC, symSize: 0x24 }
  - { offsetInCU: 0x12BAD, offset: 0x12BAD, size: 0x8, addend: 0x0, symName: __ZNSt3__122__compressed_pair_elemINS_9allocatorIxEELi1ELb1EE5__getB8ue170006Ev, symObjAddr: 0x213C, symBinAddr: 0x1000038D0, symSize: 0x14 }
  - { offsetInCU: 0x12BD3, offset: 0x12BD3, size: 0x8, addend: 0x0, symName: __ZNSt3__114__split_bufferIPxNS_9allocatorIS1_EEED2Ev, symObjAddr: 0x2150, symBinAddr: 0x1000038E4, symSize: 0x8C }
  - { offsetInCU: 0x12BFF, offset: 0x12BFF, size: 0x8, addend: 0x0, symName: __ZNSt3__114__split_bufferIPxNS_9allocatorIS1_EEE5clearB8ue170006Ev, symObjAddr: 0x21DC, symBinAddr: 0x100003970, symSize: 0x28 }
  - { offsetInCU: 0x12C25, offset: 0x12C25, size: 0x8, addend: 0x0, symName: __ZNSt3__116allocator_traitsINS_9allocatorIPxEEE10deallocateB8ue170006ERS3_PS2_m, symObjAddr: 0x2204, symBinAddr: 0x100003998, symSize: 0x34 }
  - { offsetInCU: 0x12C67, offset: 0x12C67, size: 0x8, addend: 0x0, symName: __ZNSt3__114__split_bufferIPxNS_9allocatorIS1_EEE7__allocB8ue170006Ev, symObjAddr: 0x2238, symBinAddr: 0x1000039CC, symSize: 0x28 }
  - { offsetInCU: 0x12C8D, offset: 0x12C8D, size: 0x8, addend: 0x0, symName: __ZNKSt3__114__split_bufferIPxNS_9allocatorIS1_EEE8capacityB8ue170006Ev, symObjAddr: 0x2260, symBinAddr: 0x1000039F4, symSize: 0x40 }
  - { offsetInCU: 0x12CB3, offset: 0x12CB3, size: 0x8, addend: 0x0, symName: __ZNSt3__114__split_bufferIPxNS_9allocatorIS1_EEE17__destruct_at_endB8ue170006EPS1_, symObjAddr: 0x22A0, symBinAddr: 0x100003A34, symSize: 0x2C }
  - { offsetInCU: 0x12CE7, offset: 0x12CE7, size: 0x8, addend: 0x0, symName: __ZNSt3__114__split_bufferIPxNS_9allocatorIS1_EEE17__destruct_at_endB8ue170006EPS1_NS_17integral_constantIbLb0EEE, symObjAddr: 0x22CC, symBinAddr: 0x100003A60, symSize: 0x80 }
  - { offsetInCU: 0x12D27, offset: 0x12D27, size: 0x8, addend: 0x0, symName: __ZNSt3__116allocator_traitsINS_9allocatorIPxEEE7destroyB8ue170006IS2_vEEvRS3_PT_, symObjAddr: 0x234C, symBinAddr: 0x100003AE0, symSize: 0x2C }
  - { offsetInCU: 0x12D64, offset: 0x12D64, size: 0x8, addend: 0x0, symName: __ZNSt3__19allocatorIPxE7destroyB8ue170006EPS1_, symObjAddr: 0x238C, symBinAddr: 0x100003B20, symSize: 0x14 }
  - { offsetInCU: 0x12D98, offset: 0x12D98, size: 0x8, addend: 0x0, symName: __ZNSt3__19allocatorIPxE10deallocateB8ue170006EPS1_m, symObjAddr: 0x23A0, symBinAddr: 0x100003B34, symSize: 0x40 }
  - { offsetInCU: 0x12DDA, offset: 0x12DDA, size: 0x8, addend: 0x0, symName: __ZNSt3__117__compressed_pairIPPxNS_9allocatorIS1_EEE6secondB8ue170006Ev, symObjAddr: 0x23E0, symBinAddr: 0x100003B74, symSize: 0x24 }
  - { offsetInCU: 0x12E00, offset: 0x12E00, size: 0x8, addend: 0x0, symName: __ZNSt3__122__compressed_pair_elemINS_9allocatorIPxEELi1ELb1EE5__getB8ue170006Ev, symObjAddr: 0x2404, symBinAddr: 0x100003B98, symSize: 0x14 }
  - { offsetInCU: 0x12E26, offset: 0x12E26, size: 0x8, addend: 0x0, symName: __ZNKSt3__114__split_bufferIPxNS_9allocatorIS1_EEE9__end_capB8ue170006Ev, symObjAddr: 0x2418, symBinAddr: 0x100003BAC, symSize: 0x28 }
  - { offsetInCU: 0x12E4C, offset: 0x12E4C, size: 0x8, addend: 0x0, symName: __ZNKSt3__117__compressed_pairIPPxNS_9allocatorIS1_EEE5firstB8ue170006Ev, symObjAddr: 0x2440, symBinAddr: 0x100003BD4, symSize: 0x24 }
  - { offsetInCU: 0x12E72, offset: 0x12E72, size: 0x8, addend: 0x0, symName: __ZNKSt3__122__compressed_pair_elemIPPxLi0ELb0EE5__getB8ue170006Ev, symObjAddr: 0x2464, symBinAddr: 0x100003BF8, symSize: 0x14 }
  - { offsetInCU: 0x12E98, offset: 0x12E98, size: 0x8, addend: 0x0, symName: __ZNSt3__13mapIxiNS_4lessIxEENS_9allocatorINS_4pairIKxiEEEEEC2B8ue170006Ev, symObjAddr: 0x2478, symBinAddr: 0x100003C0C, symSize: 0x40 }
  - { offsetInCU: 0x12EC2, offset: 0x12EC2, size: 0x8, addend: 0x0, symName: __ZNSt3__119__map_value_compareIxNS_12__value_typeIxiEENS_4lessIxEELb1EEC1B8ue170006ES4_, symObjAddr: 0x24B8, symBinAddr: 0x100003C4C, symSize: 0x2C }
  - { offsetInCU: 0x12EFB, offset: 0x12EFB, size: 0x8, addend: 0x0, symName: __ZNSt3__16__treeINS_12__value_typeIxiEENS_19__map_value_compareIxS2_NS_4lessIxEELb1EEENS_9allocatorIS2_EEEC1ERKS6_, symObjAddr: 0x24E4, symBinAddr: 0x100003C78, symSize: 0x34 }
  - { offsetInCU: 0x12F36, offset: 0x12F36, size: 0x8, addend: 0x0, symName: __ZNSt3__119__map_value_compareIxNS_12__value_typeIxiEENS_4lessIxEELb1EEC2B8ue170006ES4_, symObjAddr: 0x2518, symBinAddr: 0x100003CAC, symSize: 0x14 }
  - { offsetInCU: 0x12F6F, offset: 0x12F6F, size: 0x8, addend: 0x0, symName: __ZNSt3__16__treeINS_12__value_typeIxiEENS_19__map_value_compareIxS2_NS_4lessIxEELb1EEENS_9allocatorIS2_EEEC2ERKS6_, symObjAddr: 0x252C, symBinAddr: 0x100003CC0, symSize: 0x7C }
  - { offsetInCU: 0x12FAA, offset: 0x12FAA, size: 0x8, addend: 0x0, symName: __ZNSt3__117__compressed_pairINS_15__tree_end_nodeIPNS_16__tree_node_baseIPvEEEENS_9allocatorINS_11__tree_nodeINS_12__value_typeIxiEES3_EEEEEC1B8ue170006ILb1EvEEv, symObjAddr: 0x25A8, symBinAddr: 0x100003D3C, symSize: 0x2C }
  - { offsetInCU: 0x12FE4, offset: 0x12FE4, size: 0x8, addend: 0x0, symName: __ZNSt3__117__compressed_pairImNS_19__map_value_compareIxNS_12__value_typeIxiEENS_4lessIxEELb1EEEEC1B8ue170006IiRKS6_EEOT_OT0_, symObjAddr: 0x25D4, symBinAddr: 0x100003D68, symSize: 0x3C }
  - { offsetInCU: 0x1303C, offset: 0x1303C, size: 0x8, addend: 0x0, symName: __ZNSt3__16__treeINS_12__value_typeIxiEENS_19__map_value_compareIxS2_NS_4lessIxEELb1EEENS_9allocatorIS2_EEE10__end_nodeB8ue170006Ev, symObjAddr: 0x2610, symBinAddr: 0x100003DA4, symSize: 0x2C }
  - { offsetInCU: 0x13062, offset: 0x13062, size: 0x8, addend: 0x0, symName: __ZNSt3__16__treeINS_12__value_typeIxiEENS_19__map_value_compareIxS2_NS_4lessIxEELb1EEENS_9allocatorIS2_EEE12__begin_nodeB8ue170006Ev, symObjAddr: 0x263C, symBinAddr: 0x100003DD0, symSize: 0x14 }
  - { offsetInCU: 0x13088, offset: 0x13088, size: 0x8, addend: 0x0, symName: __ZNSt3__117__compressed_pairINS_15__tree_end_nodeIPNS_16__tree_node_baseIPvEEEENS_9allocatorINS_11__tree_nodeINS_12__value_typeIxiEES3_EEEEEC2B8ue170006ILb1EvEEv, symObjAddr: 0x2650, symBinAddr: 0x100003DE4, symSize: 0x34 }
  - { offsetInCU: 0x130BD, offset: 0x130BD, size: 0x8, addend: 0x0, symName: __ZNSt3__122__compressed_pair_elemINS_15__tree_end_nodeIPNS_16__tree_node_baseIPvEEEELi0ELb0EEC2B8ue170006ENS_16__value_init_tagE, symObjAddr: 0x2684, symBinAddr: 0x100003E18, symSize: 0x2C }
  - { offsetInCU: 0x130F1, offset: 0x130F1, size: 0x8, addend: 0x0, symName: __ZNSt3__122__compressed_pair_elemINS_9allocatorINS_11__tree_nodeINS_12__value_typeIxiEEPvEEEELi1ELb1EEC2B8ue170006ENS_16__value_init_tagE, symObjAddr: 0x26B0, symBinAddr: 0x100003E44, symSize: 0x2C }
  - { offsetInCU: 0x13125, offset: 0x13125, size: 0x8, addend: 0x0, symName: __ZNSt3__115__tree_end_nodeIPNS_16__tree_node_baseIPvEEEC1B8ue170006Ev, symObjAddr: 0x26DC, symBinAddr: 0x100003E70, symSize: 0x2C }
  - { offsetInCU: 0x1314F, offset: 0x1314F, size: 0x8, addend: 0x0, symName: __ZNSt3__115__tree_end_nodeIPNS_16__tree_node_baseIPvEEEC2B8ue170006Ev, symObjAddr: 0x2708, symBinAddr: 0x100003E9C, symSize: 0x18 }
  - { offsetInCU: 0x13179, offset: 0x13179, size: 0x8, addend: 0x0, symName: __ZNSt3__19allocatorINS_11__tree_nodeINS_12__value_typeIxiEEPvEEEC2B8ue170006Ev, symObjAddr: 0x2720, symBinAddr: 0x100003EB4, symSize: 0x2C }
  - { offsetInCU: 0x131A3, offset: 0x131A3, size: 0x8, addend: 0x0, symName: __ZNSt3__116__non_trivial_ifILb1ENS_9allocatorINS_11__tree_nodeINS_12__value_typeIxiEEPvEEEEEC2B8ue170006Ev, symObjAddr: 0x274C, symBinAddr: 0x100003EE0, symSize: 0x14 }
  - { offsetInCU: 0x131CD, offset: 0x131CD, size: 0x8, addend: 0x0, symName: __ZNSt3__117__compressed_pairImNS_19__map_value_compareIxNS_12__value_typeIxiEENS_4lessIxEELb1EEEEC2B8ue170006IiRKS6_EEOT_OT0_, symObjAddr: 0x2760, symBinAddr: 0x100003EF4, symSize: 0x44 }
  - { offsetInCU: 0x13225, offset: 0x13225, size: 0x8, addend: 0x0, symName: __ZNSt3__122__compressed_pair_elemImLi0ELb0EEC2B8ue170006IivEEOT_, symObjAddr: 0x27A4, symBinAddr: 0x100003F38, symSize: 0x24 }
  - { offsetInCU: 0x13267, offset: 0x13267, size: 0x8, addend: 0x0, symName: __ZNSt3__122__compressed_pair_elemINS_19__map_value_compareIxNS_12__value_typeIxiEENS_4lessIxEELb1EEELi1ELb1EEC2B8ue170006IRKS6_vEEOT_, symObjAddr: 0x27C8, symBinAddr: 0x100003F5C, symSize: 0x18 }
  - { offsetInCU: 0x132A9, offset: 0x132A9, size: 0x8, addend: 0x0, symName: __ZNSt3__114pointer_traitsIPNS_15__tree_end_nodeIPNS_16__tree_node_baseIPvEEEEE10pointer_toB8ue170006ERS6_, symObjAddr: 0x27E0, symBinAddr: 0x100003F74, symSize: 0x14 }
  - { offsetInCU: 0x132CC, offset: 0x132CC, size: 0x8, addend: 0x0, symName: __ZNSt3__117__compressed_pairINS_15__tree_end_nodeIPNS_16__tree_node_baseIPvEEEENS_9allocatorINS_11__tree_nodeINS_12__value_typeIxiEES3_EEEEE5firstB8ue170006Ev, symObjAddr: 0x27F4, symBinAddr: 0x100003F88, symSize: 0x24 }
  - { offsetInCU: 0x132F2, offset: 0x132F2, size: 0x8, addend: 0x0, symName: __ZNSt3__122__compressed_pair_elemINS_15__tree_end_nodeIPNS_16__tree_node_baseIPvEEEELi0ELb0EE5__getB8ue170006Ev, symObjAddr: 0x2818, symBinAddr: 0x100003FAC, symSize: 0x14 }
  - { offsetInCU: 0x13318, offset: 0x13318, size: 0x8, addend: 0x0, symName: __ZNSt3__13mapIxiNS_4lessIxEENS_9allocatorINS_4pairIKxiEEEEED2B8ue170006Ev, symObjAddr: 0x282C, symBinAddr: 0x100003FC0, symSize: 0x2C }
  - { offsetInCU: 0x13342, offset: 0x13342, size: 0x8, addend: 0x0, symName: __ZNSt3__16__treeINS_12__value_typeIxiEENS_19__map_value_compareIxS2_NS_4lessIxEELb1EEENS_9allocatorIS2_EEED1Ev, symObjAddr: 0x2858, symBinAddr: 0x100003FEC, symSize: 0x2C }
  - { offsetInCU: 0x1336E, offset: 0x1336E, size: 0x8, addend: 0x0, symName: __ZNSt3__16__treeINS_12__value_typeIxiEENS_19__map_value_compareIxS2_NS_4lessIxEELb1EEENS_9allocatorIS2_EEED2Ev, symObjAddr: 0x2884, symBinAddr: 0x100004018, symSize: 0x38 }
  - { offsetInCU: 0x1339A, offset: 0x1339A, size: 0x8, addend: 0x0, symName: __ZNSt3__16__treeINS_12__value_typeIxiEENS_19__map_value_compareIxS2_NS_4lessIxEELb1EEENS_9allocatorIS2_EEE7destroyEPNS_11__tree_nodeIS2_PvEE, symObjAddr: 0x28BC, symBinAddr: 0x100004050, symSize: 0xAC }
  - { offsetInCU: 0x133E7, offset: 0x133E7, size: 0x8, addend: 0x0, symName: __ZNKSt3__16__treeINS_12__value_typeIxiEENS_19__map_value_compareIxS2_NS_4lessIxEELb1EEENS_9allocatorIS2_EEE6__rootB8ue170006Ev, symObjAddr: 0x2968, symBinAddr: 0x1000040FC, symSize: 0x28 }
  - { offsetInCU: 0x1340D, offset: 0x1340D, size: 0x8, addend: 0x0, symName: __ZNSt3__16__treeINS_12__value_typeIxiEENS_19__map_value_compareIxS2_NS_4lessIxEELb1EEENS_9allocatorIS2_EEE12__node_allocB8ue170006Ev, symObjAddr: 0x2990, symBinAddr: 0x100004124, symSize: 0x28 }
  - { offsetInCU: 0x13433, offset: 0x13433, size: 0x8, addend: 0x0, symName: __ZNSt3__116allocator_traitsINS_9allocatorINS_11__tree_nodeINS_12__value_typeIxiEEPvEEEEE7destroyB8ue170006INS_4pairIKxiEEvvEEvRS7_PT_, symObjAddr: 0x29B8, symBinAddr: 0x10000414C, symSize: 0x14 }
  - { offsetInCU: 0x1346D, offset: 0x1346D, size: 0x8, addend: 0x0, symName: __ZNSt3__122__tree_key_value_typesINS_12__value_typeIxiEEE9__get_ptrB8ue170006ERS2_, symObjAddr: 0x29CC, symBinAddr: 0x100004160, symSize: 0x24 }
  - { offsetInCU: 0x13491, offset: 0x13491, size: 0x8, addend: 0x0, symName: __ZNSt3__116allocator_traitsINS_9allocatorINS_11__tree_nodeINS_12__value_typeIxiEEPvEEEEE10deallocateB8ue170006ERS7_PS6_m, symObjAddr: 0x29F0, symBinAddr: 0x100004184, symSize: 0x34 }
  - { offsetInCU: 0x134D3, offset: 0x134D3, size: 0x8, addend: 0x0, symName: __ZNSt3__117__compressed_pairINS_15__tree_end_nodeIPNS_16__tree_node_baseIPvEEEENS_9allocatorINS_11__tree_nodeINS_12__value_typeIxiEES3_EEEEE6secondB8ue170006Ev, symObjAddr: 0x2A24, symBinAddr: 0x1000041B8, symSize: 0x24 }
  - { offsetInCU: 0x134F9, offset: 0x134F9, size: 0x8, addend: 0x0, symName: __ZNSt3__122__compressed_pair_elemINS_9allocatorINS_11__tree_nodeINS_12__value_typeIxiEEPvEEEELi1ELb1EE5__getB8ue170006Ev, symObjAddr: 0x2A48, symBinAddr: 0x1000041DC, symSize: 0x14 }
  - { offsetInCU: 0x1351F, offset: 0x1351F, size: 0x8, addend: 0x0, symName: __ZNSt3__112__value_typeIxiE11__get_valueB8ue170006Ev, symObjAddr: 0x2A5C, symBinAddr: 0x1000041F0, symSize: 0x14 }
  - { offsetInCU: 0x13545, offset: 0x13545, size: 0x8, addend: 0x0, symName: __ZNSt3__19allocatorINS_11__tree_nodeINS_12__value_typeIxiEEPvEEE10deallocateB8ue170006EPS5_m, symObjAddr: 0x2A70, symBinAddr: 0x100004204, symSize: 0x44 }
  - { offsetInCU: 0x13587, offset: 0x13587, size: 0x8, addend: 0x0, symName: __ZNKSt3__16__treeINS_12__value_typeIxiEENS_19__map_value_compareIxS2_NS_4lessIxEELb1EEENS_9allocatorIS2_EEE10__end_nodeB8ue170006Ev, symObjAddr: 0x2AB4, symBinAddr: 0x100004248, symSize: 0x2C }
  - { offsetInCU: 0x135AD, offset: 0x135AD, size: 0x8, addend: 0x0, symName: __ZNKSt3__117__compressed_pairINS_15__tree_end_nodeIPNS_16__tree_node_baseIPvEEEENS_9allocatorINS_11__tree_nodeINS_12__value_typeIxiEES3_EEEEE5firstB8ue170006Ev, symObjAddr: 0x2AE0, symBinAddr: 0x100004274, symSize: 0x24 }
  - { offsetInCU: 0x135D3, offset: 0x135D3, size: 0x8, addend: 0x0, symName: __ZNKSt3__122__compressed_pair_elemINS_15__tree_end_nodeIPNS_16__tree_node_baseIPvEEEELi0ELb0EE5__getB8ue170006Ev, symObjAddr: 0x2B04, symBinAddr: 0x100004298, symSize: 0x14 }
  - { offsetInCU: 0x135F9, offset: 0x135F9, size: 0x8, addend: 0x0, symName: __ZNSt3__16vectorINS0_IxNS_9allocatorIxEEEENS1_IS3_EEEC2Em, symObjAddr: 0x2B18, symBinAddr: 0x1000042AC, symSize: 0xD4 }
  - { offsetInCU: 0x13654, offset: 0x13654, size: 0x8, addend: 0x0, symName: __ZNSt3__117__compressed_pairIPNS_6vectorIxNS_9allocatorIxEEEENS2_IS4_EEEC1B8ue170006IDnNS_18__default_init_tagEEEOT_OT0_, symObjAddr: 0x2BEC, symBinAddr: 0x100004380, symSize: 0x3C }
  - { offsetInCU: 0x136AC, offset: 0x136AC, size: 0x8, addend: 0x0, symName: __ZNSt3__16vectorINS0_IxNS_9allocatorIxEEEENS1_IS3_EEE16__destroy_vectorC1B8ue170006ERS5_, symObjAddr: 0x2C68, symBinAddr: 0x1000043FC, symSize: 0x34 }
  - { offsetInCU: 0x136E5, offset: 0x136E5, size: 0x8, addend: 0x0, symName: __ZNSt3__16vectorINS0_IxNS_9allocatorIxEEEENS1_IS3_EEE11__vallocateB8ue170006Em, symObjAddr: 0x2C9C, symBinAddr: 0x100004430, symSize: 0xB4 }
  - { offsetInCU: 0x13729, offset: 0x13729, size: 0x8, addend: 0x0, symName: __ZNSt3__16vectorINS0_IxNS_9allocatorIxEEEENS1_IS3_EEE18__construct_at_endEm, symObjAddr: 0x2D50, symBinAddr: 0x1000044E4, symSize: 0xC8 }
  - { offsetInCU: 0x1379B, offset: 0x1379B, size: 0x8, addend: 0x0, symName: __ZNSt3__128__exception_guard_exceptionsINS_6vectorINS1_IxNS_9allocatorIxEEEENS2_IS4_EEE16__destroy_vectorEE10__completeB8ue170006Ev, symObjAddr: 0x2E18, symBinAddr: 0x1000045AC, symSize: 0x1C }
  - { offsetInCU: 0x137C1, offset: 0x137C1, size: 0x8, addend: 0x0, symName: __ZNSt3__128__exception_guard_exceptionsINS_6vectorINS1_IxNS_9allocatorIxEEEENS2_IS4_EEE16__destroy_vectorEED1B8ue170006Ev, symObjAddr: 0x2E34, symBinAddr: 0x1000045C8, symSize: 0x2C }
  - { offsetInCU: 0x137EB, offset: 0x137EB, size: 0x8, addend: 0x0, symName: __ZNSt3__117__compressed_pairIPNS_6vectorIxNS_9allocatorIxEEEENS2_IS4_EEEC2B8ue170006IDnNS_18__default_init_tagEEEOT_OT0_, symObjAddr: 0x2E60, symBinAddr: 0x1000045F4, symSize: 0x40 }
  - { offsetInCU: 0x13843, offset: 0x13843, size: 0x8, addend: 0x0, symName: __ZNSt3__122__compressed_pair_elemIPNS_6vectorIxNS_9allocatorIxEEEELi0ELb0EEC2B8ue170006IDnvEEOT_, symObjAddr: 0x2EA0, symBinAddr: 0x100004634, symSize: 0x1C }
  - { offsetInCU: 0x13885, offset: 0x13885, size: 0x8, addend: 0x0, symName: __ZNSt3__122__compressed_pair_elemINS_9allocatorINS_6vectorIxNS1_IxEEEEEELi1ELb1EEC2B8ue170006ENS_18__default_init_tagE, symObjAddr: 0x2EBC, symBinAddr: 0x100004650, symSize: 0x2C }
  - { offsetInCU: 0x138B9, offset: 0x138B9, size: 0x8, addend: 0x0, symName: __ZNSt3__19allocatorINS_6vectorIxNS0_IxEEEEEC2B8ue170006Ev, symObjAddr: 0x2EE8, symBinAddr: 0x10000467C, symSize: 0x2C }
  - { offsetInCU: 0x138E3, offset: 0x138E3, size: 0x8, addend: 0x0, symName: __ZNSt3__116__non_trivial_ifILb1ENS_9allocatorINS_6vectorIxNS1_IxEEEEEEEC2B8ue170006Ev, symObjAddr: 0x2F14, symBinAddr: 0x1000046A8, symSize: 0x14 }
  - { offsetInCU: 0x1390D, offset: 0x1390D, size: 0x8, addend: 0x0, symName: __ZNSt3__128__exception_guard_exceptionsINS_6vectorINS1_IxNS_9allocatorIxEEEENS2_IS4_EEE16__destroy_vectorEEC1B8ue170006ES7_, symObjAddr: 0x2F28, symBinAddr: 0x1000046BC, symSize: 0x34 }
  - { offsetInCU: 0x13945, offset: 0x13945, size: 0x8, addend: 0x0, symName: __ZNSt3__128__exception_guard_exceptionsINS_6vectorINS1_IxNS_9allocatorIxEEEENS2_IS4_EEE16__destroy_vectorEEC2B8ue170006ES7_, symObjAddr: 0x2F5C, symBinAddr: 0x1000046F0, symSize: 0x24 }
  - { offsetInCU: 0x1397D, offset: 0x1397D, size: 0x8, addend: 0x0, symName: __ZNSt3__16vectorINS0_IxNS_9allocatorIxEEEENS1_IS3_EEE16__destroy_vectorC2B8ue170006ERS5_, symObjAddr: 0x2F80, symBinAddr: 0x100004714, symSize: 0x20 }
  - { offsetInCU: 0x139B6, offset: 0x139B6, size: 0x8, addend: 0x0, symName: __ZNKSt3__16vectorINS0_IxNS_9allocatorIxEEEENS1_IS3_EEE8max_sizeEv, symObjAddr: 0x2FA0, symBinAddr: 0x100004734, symSize: 0x60 }
  - { offsetInCU: 0x139DE, offset: 0x139DE, size: 0x8, addend: 0x0, symName: __ZNKSt3__16vectorINS0_IxNS_9allocatorIxEEEENS1_IS3_EEE20__throw_length_errorB8ue170006Ev, symObjAddr: 0x3000, symBinAddr: 0x100004794, symSize: 0x1C }
  - { offsetInCU: 0x13A04, offset: 0x13A04, size: 0x8, addend: 0x0, symName: __ZNSt3__16vectorINS0_IxNS_9allocatorIxEEEENS1_IS3_EEE7__allocB8ue170006Ev, symObjAddr: 0x305C, symBinAddr: 0x1000047F0, symSize: 0x28 }
  - { offsetInCU: 0x13A2A, offset: 0x13A2A, size: 0x8, addend: 0x0, symName: __ZNSt3__16vectorINS0_IxNS_9allocatorIxEEEENS1_IS3_EEE9__end_capB8ue170006Ev, symObjAddr: 0x3084, symBinAddr: 0x100004818, symSize: 0x28 }
  - { offsetInCU: 0x13A50, offset: 0x13A50, size: 0x8, addend: 0x0, symName: __ZNKSt3__16vectorINS0_IxNS_9allocatorIxEEEENS1_IS3_EEE14__annotate_newB8ue170006Em, symObjAddr: 0x30AC, symBinAddr: 0x100004840, symSize: 0xC8 }
  - { offsetInCU: 0x13A8F, offset: 0x13A8F, size: 0x8, addend: 0x0, symName: __ZNSt3__116allocator_traitsINS_9allocatorINS_6vectorIxNS1_IxEEEEEEE8max_sizeB8ue170006IS5_vEEmRKS5_, symObjAddr: 0x31A0, symBinAddr: 0x100004934, symSize: 0x24 }
  - { offsetInCU: 0x13ABD, offset: 0x13ABD, size: 0x8, addend: 0x0, symName: __ZNKSt3__16vectorINS0_IxNS_9allocatorIxEEEENS1_IS3_EEE7__allocB8ue170006Ev, symObjAddr: 0x31C4, symBinAddr: 0x100004958, symSize: 0x28 }
  - { offsetInCU: 0x13AE3, offset: 0x13AE3, size: 0x8, addend: 0x0, symName: __ZNSt3__114numeric_limitsIlE3maxB8ue170006Ev, symObjAddr: 0x31EC, symBinAddr: 0x100004980, symSize: 0x14 }
  - { offsetInCU: 0x13B01, offset: 0x13B01, size: 0x8, addend: 0x0, symName: __ZNKSt3__16__lessIvvEclB8ue170006ImmEEbRKT_RKT0_, symObjAddr: 0x3254, symBinAddr: 0x1000049E8, symSize: 0x34 }
  - { offsetInCU: 0x13B55, offset: 0x13B55, size: 0x8, addend: 0x0, symName: __ZNKSt3__19allocatorINS_6vectorIxNS0_IxEEEEE8max_sizeB8ue170006Ev, symObjAddr: 0x3288, symBinAddr: 0x100004A1C, symSize: 0x18 }
  - { offsetInCU: 0x13B7B, offset: 0x13B7B, size: 0x8, addend: 0x0, symName: __ZNKSt3__117__compressed_pairIPNS_6vectorIxNS_9allocatorIxEEEENS2_IS4_EEE6secondB8ue170006Ev, symObjAddr: 0x32A0, symBinAddr: 0x100004A34, symSize: 0x24 }
  - { offsetInCU: 0x13BA1, offset: 0x13BA1, size: 0x8, addend: 0x0, symName: __ZNKSt3__122__compressed_pair_elemINS_9allocatorINS_6vectorIxNS1_IxEEEEEELi1ELb1EE5__getB8ue170006Ev, symObjAddr: 0x32C4, symBinAddr: 0x100004A58, symSize: 0x14 }
  - { offsetInCU: 0x13BC7, offset: 0x13BC7, size: 0x8, addend: 0x0, symName: __ZNSt3__123__libcpp_numeric_limitsIlLb1EE3maxB8ue170006Ev, symObjAddr: 0x32D8, symBinAddr: 0x100004A6C, symSize: 0x8 }
  - { offsetInCU: 0x13BDB, offset: 0x13BDB, size: 0x8, addend: 0x0, symName: __ZNSt12length_errorC1B8ue170006EPKc, symObjAddr: 0x3344, symBinAddr: 0x100004AD8, symSize: 0x34 }
  - { offsetInCU: 0x13C13, offset: 0x13C13, size: 0x8, addend: 0x0, symName: __ZNSt12length_errorC2B8ue170006EPKc, symObjAddr: 0x3378, symBinAddr: 0x100004B0C, symSize: 0x4C }
  - { offsetInCU: 0x13C4B, offset: 0x13C4B, size: 0x8, addend: 0x0, symName: __ZNSt3__19allocatorINS_6vectorIxNS0_IxEEEEE8allocateB8ue170006Em, symObjAddr: 0x33C4, symBinAddr: 0x100004B58, symSize: 0x5C }
  - { offsetInCU: 0x13C7F, offset: 0x13C7F, size: 0x8, addend: 0x0, symName: __ZNSt3__117__compressed_pairIPNS_6vectorIxNS_9allocatorIxEEEENS2_IS4_EEE6secondB8ue170006Ev, symObjAddr: 0x34A0, symBinAddr: 0x100004C34, symSize: 0x24 }
  - { offsetInCU: 0x13CA5, offset: 0x13CA5, size: 0x8, addend: 0x0, symName: __ZNSt3__122__compressed_pair_elemINS_9allocatorINS_6vectorIxNS1_IxEEEEEELi1ELb1EE5__getB8ue170006Ev, symObjAddr: 0x34C4, symBinAddr: 0x100004C58, symSize: 0x14 }
  - { offsetInCU: 0x13CCB, offset: 0x13CCB, size: 0x8, addend: 0x0, symName: __ZNSt3__117__compressed_pairIPNS_6vectorIxNS_9allocatorIxEEEENS2_IS4_EEE5firstB8ue170006Ev, symObjAddr: 0x34D8, symBinAddr: 0x100004C6C, symSize: 0x24 }
  - { offsetInCU: 0x13CF1, offset: 0x13CF1, size: 0x8, addend: 0x0, symName: __ZNSt3__122__compressed_pair_elemIPNS_6vectorIxNS_9allocatorIxEEEELi0ELb0EE5__getB8ue170006Ev, symObjAddr: 0x34FC, symBinAddr: 0x100004C90, symSize: 0x14 }
  - { offsetInCU: 0x13D17, offset: 0x13D17, size: 0x8, addend: 0x0, symName: __ZNKSt3__16vectorINS0_IxNS_9allocatorIxEEEENS1_IS3_EEE31__annotate_contiguous_containerB8ue170006EPKvS7_S7_S7_, symObjAddr: 0x3510, symBinAddr: 0x100004CA4, symSize: 0x20 }
  - { offsetInCU: 0x13D69, offset: 0x13D69, size: 0x8, addend: 0x0, symName: __ZNKSt3__16vectorINS0_IxNS_9allocatorIxEEEENS1_IS3_EEE4dataB8ue170006Ev, symObjAddr: 0x3530, symBinAddr: 0x100004CC4, symSize: 0x28 }
  - { offsetInCU: 0x13D8F, offset: 0x13D8F, size: 0x8, addend: 0x0, symName: __ZNKSt3__16vectorINS0_IxNS_9allocatorIxEEEENS1_IS3_EEE8capacityB8ue170006Ev, symObjAddr: 0x3558, symBinAddr: 0x100004CEC, symSize: 0x40 }
  - { offsetInCU: 0x13DB5, offset: 0x13DB5, size: 0x8, addend: 0x0, symName: __ZNKSt3__16vectorINS0_IxNS_9allocatorIxEEEENS1_IS3_EEE9__end_capB8ue170006Ev, symObjAddr: 0x35AC, symBinAddr: 0x100004D40, symSize: 0x28 }
  - { offsetInCU: 0x13DDB, offset: 0x13DDB, size: 0x8, addend: 0x0, symName: __ZNKSt3__117__compressed_pairIPNS_6vectorIxNS_9allocatorIxEEEENS2_IS4_EEE5firstB8ue170006Ev, symObjAddr: 0x35D4, symBinAddr: 0x100004D68, symSize: 0x24 }
  - { offsetInCU: 0x13E01, offset: 0x13E01, size: 0x8, addend: 0x0, symName: __ZNKSt3__122__compressed_pair_elemIPNS_6vectorIxNS_9allocatorIxEEEELi0ELb0EE5__getB8ue170006Ev, symObjAddr: 0x35F8, symBinAddr: 0x100004D8C, symSize: 0x14 }
  - { offsetInCU: 0x13E40, offset: 0x13E40, size: 0x8, addend: 0x0, symName: __ZNSt3__16vectorINS0_IxNS_9allocatorIxEEEENS1_IS3_EEE21_ConstructTransactionC1B8ue170006ERS5_m, symObjAddr: 0x360C, symBinAddr: 0x100004DA0, symSize: 0x3C }
  - { offsetInCU: 0x13E88, offset: 0x13E88, size: 0x8, addend: 0x0, symName: __ZNSt3__116allocator_traitsINS_9allocatorINS_6vectorIxNS1_IxEEEEEEE9constructB8ue170006IS4_JEvEEvRS5_PT_DpOT0_, symObjAddr: 0x3648, symBinAddr: 0x100004DDC, symSize: 0x2C }
  - { offsetInCU: 0x13ECA, offset: 0x13ECA, size: 0x8, addend: 0x0, symName: __ZNSt3__16vectorINS0_IxNS_9allocatorIxEEEENS1_IS3_EEE21_ConstructTransactionD1B8ue170006Ev, symObjAddr: 0x3674, symBinAddr: 0x100004E08, symSize: 0x2C }
  - { offsetInCU: 0x13EF4, offset: 0x13EF4, size: 0x8, addend: 0x0, symName: __ZNSt3__16vectorINS0_IxNS_9allocatorIxEEEENS1_IS3_EEE21_ConstructTransactionC2B8ue170006ERS5_m, symObjAddr: 0x36A0, symBinAddr: 0x100004E34, symSize: 0x4C }
  - { offsetInCU: 0x13F3C, offset: 0x13F3C, size: 0x8, addend: 0x0, symName: __ZNSt3__19allocatorINS_6vectorIxNS0_IxEEEEE9constructB8ue170006IS3_JEEEvPT_DpOT0_, symObjAddr: 0x36EC, symBinAddr: 0x100004E80, symSize: 0x28 }
  - { offsetInCU: 0x13F7E, offset: 0x13F7E, size: 0x8, addend: 0x0, symName: __ZNSt3__16vectorINS0_IxNS_9allocatorIxEEEENS1_IS3_EEE21_ConstructTransactionD2B8ue170006Ev, symObjAddr: 0x3714, symBinAddr: 0x100004EA8, symSize: 0x20 }
  - { offsetInCU: 0x13FA8, offset: 0x13FA8, size: 0x8, addend: 0x0, symName: __ZNSt3__128__exception_guard_exceptionsINS_6vectorINS1_IxNS_9allocatorIxEEEENS2_IS4_EEE16__destroy_vectorEED2B8ue170006Ev, symObjAddr: 0x3734, symBinAddr: 0x100004EC8, symSize: 0x50 }
  - { offsetInCU: 0x13FD2, offset: 0x13FD2, size: 0x8, addend: 0x0, symName: __ZNSt3__16vectorINS0_IxNS_9allocatorIxEEEENS1_IS3_EEE16__destroy_vectorclB8ue170006Ev, symObjAddr: 0x3784, symBinAddr: 0x100004F18, symSize: 0x90 }
  - { offsetInCU: 0x13FF8, offset: 0x13FF8, size: 0x8, addend: 0x0, symName: __ZNSt3__16vectorINS0_IxNS_9allocatorIxEEEENS1_IS3_EEE7__clearB8ue170006Ev, symObjAddr: 0x3814, symBinAddr: 0x100004FA8, symSize: 0x28 }
  - { offsetInCU: 0x1401E, offset: 0x1401E, size: 0x8, addend: 0x0, symName: __ZNKSt3__16vectorINS0_IxNS_9allocatorIxEEEENS1_IS3_EEE17__annotate_deleteB8ue170006Ev, symObjAddr: 0x383C, symBinAddr: 0x100004FD0, symSize: 0xD4 }
  - { offsetInCU: 0x14044, offset: 0x14044, size: 0x8, addend: 0x0, symName: __ZNSt3__116allocator_traitsINS_9allocatorINS_6vectorIxNS1_IxEEEEEEE10deallocateB8ue170006ERS5_PS4_m, symObjAddr: 0x3910, symBinAddr: 0x1000050A4, symSize: 0x34 }
  - { offsetInCU: 0x14086, offset: 0x14086, size: 0x8, addend: 0x0, symName: __ZNSt3__16vectorINS0_IxNS_9allocatorIxEEEENS1_IS3_EEE22__base_destruct_at_endB8ue170006EPS3_, symObjAddr: 0x3944, symBinAddr: 0x1000050D8, symSize: 0x8C }
  - { offsetInCU: 0x140CA, offset: 0x140CA, size: 0x8, addend: 0x0, symName: __ZNSt3__116allocator_traitsINS_9allocatorINS_6vectorIxNS1_IxEEEEEEE7destroyB8ue170006IS4_vEEvRS5_PT_, symObjAddr: 0x39D0, symBinAddr: 0x100005164, symSize: 0x2C }
  - { offsetInCU: 0x14107, offset: 0x14107, size: 0x8, addend: 0x0, symName: __ZNSt3__19allocatorINS_6vectorIxNS0_IxEEEEE7destroyB8ue170006EPS3_, symObjAddr: 0x39FC, symBinAddr: 0x100005190, symSize: 0x28 }
  - { offsetInCU: 0x1413B, offset: 0x1413B, size: 0x8, addend: 0x0, symName: __ZNKSt3__16vectorINS0_IxNS_9allocatorIxEEEENS1_IS3_EEE4sizeB8ue170006Ev, symObjAddr: 0x3A24, symBinAddr: 0x1000051B8, symSize: 0x28 }
  - { offsetInCU: 0x14161, offset: 0x14161, size: 0x8, addend: 0x0, symName: __ZNSt3__19allocatorINS_6vectorIxNS0_IxEEEEE10deallocateB8ue170006EPS3_m, symObjAddr: 0x3A4C, symBinAddr: 0x1000051E0, symSize: 0x44 }
  - { offsetInCU: 0x141A3, offset: 0x141A3, size: 0x8, addend: 0x0, symName: __ZNSt3__16vectorINS0_IxNS_9allocatorIxEEEENS1_IS3_EEED2B8ue170006Ev, symObjAddr: 0x3A90, symBinAddr: 0x100005224, symSize: 0x40 }
  - { offsetInCU: 0x141CD, offset: 0x141CD, size: 0x8, addend: 0x0, symName: __ZNSt3__16vectorIxNS_9allocatorIxEEEC2B8ue170006Ev, symObjAddr: 0x3AD0, symBinAddr: 0x100005264, symSize: 0x4C }
  - { offsetInCU: 0x141F7, offset: 0x141F7, size: 0x8, addend: 0x0, symName: __ZNSt3__117__compressed_pairIPxNS_9allocatorIxEEEC1B8ue170006IDnNS_18__default_init_tagEEEOT_OT0_, symObjAddr: 0x3B1C, symBinAddr: 0x1000052B0, symSize: 0x3C }
  - { offsetInCU: 0x1424F, offset: 0x1424F, size: 0x8, addend: 0x0, symName: __ZNSt3__117__compressed_pairIPxNS_9allocatorIxEEEC2B8ue170006IDnNS_18__default_init_tagEEEOT_OT0_, symObjAddr: 0x3B58, symBinAddr: 0x1000052EC, symSize: 0x40 }
  - { offsetInCU: 0x142A7, offset: 0x142A7, size: 0x8, addend: 0x0, symName: __ZNSt3__122__compressed_pair_elemIPxLi0ELb0EEC2B8ue170006IDnvEEOT_, symObjAddr: 0x3B98, symBinAddr: 0x10000532C, symSize: 0x1C }
  - { offsetInCU: 0x142E9, offset: 0x142E9, size: 0x8, addend: 0x0, symName: __ZNSt3__122__compressed_pair_elemINS_9allocatorIxEELi1ELb1EEC2B8ue170006ENS_18__default_init_tagE, symObjAddr: 0x3BB4, symBinAddr: 0x100005348, symSize: 0x2C }
  - { offsetInCU: 0x1431D, offset: 0x1431D, size: 0x8, addend: 0x0, symName: __ZNSt3__19allocatorIxEC2B8ue170006Ev, symObjAddr: 0x3BE0, symBinAddr: 0x100005374, symSize: 0x2C }
  - { offsetInCU: 0x14347, offset: 0x14347, size: 0x8, addend: 0x0, symName: __ZNSt3__116__non_trivial_ifILb1ENS_9allocatorIxEEEC2B8ue170006Ev, symObjAddr: 0x3C0C, symBinAddr: 0x1000053A0, symSize: 0x14 }
  - { offsetInCU: 0x14371, offset: 0x14371, size: 0x8, addend: 0x0, symName: __ZNSt3__16vectorIxNS_9allocatorIxEEED2B8ue170006Ev, symObjAddr: 0x3C20, symBinAddr: 0x1000053B4, symSize: 0x44 }
  - { offsetInCU: 0x1439B, offset: 0x1439B, size: 0x8, addend: 0x0, symName: __ZNSt3__16vectorIxNS_9allocatorIxEEE16__destroy_vectorC1B8ue170006ERS3_, symObjAddr: 0x3C64, symBinAddr: 0x1000053F8, symSize: 0x34 }
  - { offsetInCU: 0x143D4, offset: 0x143D4, size: 0x8, addend: 0x0, symName: __ZNSt3__16vectorIxNS_9allocatorIxEEE16__destroy_vectorclB8ue170006Ev, symObjAddr: 0x3C98, symBinAddr: 0x10000542C, symSize: 0x90 }
  - { offsetInCU: 0x143FA, offset: 0x143FA, size: 0x8, addend: 0x0, symName: __ZNSt3__16vectorIxNS_9allocatorIxEEE16__destroy_vectorC2B8ue170006ERS3_, symObjAddr: 0x3D28, symBinAddr: 0x1000054BC, symSize: 0x20 }
  - { offsetInCU: 0x14433, offset: 0x14433, size: 0x8, addend: 0x0, symName: __ZNSt3__16vectorIxNS_9allocatorIxEEE7__clearB8ue170006Ev, symObjAddr: 0x3D48, symBinAddr: 0x1000054DC, symSize: 0x28 }
  - { offsetInCU: 0x14459, offset: 0x14459, size: 0x8, addend: 0x0, symName: __ZNKSt3__16vectorIxNS_9allocatorIxEEE17__annotate_deleteB8ue170006Ev, symObjAddr: 0x3D70, symBinAddr: 0x100005504, symSize: 0xB8 }
  - { offsetInCU: 0x1447F, offset: 0x1447F, size: 0x8, addend: 0x0, symName: __ZNSt3__16vectorIxNS_9allocatorIxEEE7__allocB8ue170006Ev, symObjAddr: 0x3E28, symBinAddr: 0x1000055BC, symSize: 0x28 }
  - { offsetInCU: 0x144A5, offset: 0x144A5, size: 0x8, addend: 0x0, symName: __ZNKSt3__16vectorIxNS_9allocatorIxEEE8capacityB8ue170006Ev, symObjAddr: 0x3E50, symBinAddr: 0x1000055E4, symSize: 0x40 }
  - { offsetInCU: 0x144CB, offset: 0x144CB, size: 0x8, addend: 0x0, symName: __ZNSt3__16vectorIxNS_9allocatorIxEEE22__base_destruct_at_endB8ue170006EPx, symObjAddr: 0x3E90, symBinAddr: 0x100005624, symSize: 0x8C }
  - { offsetInCU: 0x1450F, offset: 0x1450F, size: 0x8, addend: 0x0, symName: __ZNKSt3__16vectorIxNS_9allocatorIxEEE31__annotate_contiguous_containerB8ue170006EPKvS5_S5_S5_, symObjAddr: 0x3F1C, symBinAddr: 0x1000056B0, symSize: 0x20 }
  - { offsetInCU: 0x14561, offset: 0x14561, size: 0x8, addend: 0x0, symName: __ZNKSt3__16vectorIxNS_9allocatorIxEEE4dataB8ue170006Ev, symObjAddr: 0x3F3C, symBinAddr: 0x1000056D0, symSize: 0x28 }
  - { offsetInCU: 0x14587, offset: 0x14587, size: 0x8, addend: 0x0, symName: __ZNSt3__117__compressed_pairIPxNS_9allocatorIxEEE6secondB8ue170006Ev, symObjAddr: 0x3F64, symBinAddr: 0x1000056F8, symSize: 0x24 }
  - { offsetInCU: 0x145AD, offset: 0x145AD, size: 0x8, addend: 0x0, symName: __ZNKSt3__16vectorIxNS_9allocatorIxEEE9__end_capB8ue170006Ev, symObjAddr: 0x3F88, symBinAddr: 0x10000571C, symSize: 0x28 }
  - { offsetInCU: 0x145D3, offset: 0x145D3, size: 0x8, addend: 0x0, symName: __ZNKSt3__117__compressed_pairIPxNS_9allocatorIxEEE5firstB8ue170006Ev, symObjAddr: 0x3FB0, symBinAddr: 0x100005744, symSize: 0x24 }
  - { offsetInCU: 0x145F9, offset: 0x145F9, size: 0x8, addend: 0x0, symName: __ZNKSt3__122__compressed_pair_elemIPxLi0ELb0EE5__getB8ue170006Ev, symObjAddr: 0x3FD4, symBinAddr: 0x100005768, symSize: 0x14 }
  - { offsetInCU: 0x1461F, offset: 0x1461F, size: 0x8, addend: 0x0, symName: __ZNSt3__16vectorIxNS_9allocatorIxEEE9__end_capB8ue170006Ev, symObjAddr: 0x3FE8, symBinAddr: 0x10000577C, symSize: 0x28 }
  - { offsetInCU: 0x14645, offset: 0x14645, size: 0x8, addend: 0x0, symName: __ZNSt3__16vectorIxNS_9allocatorIxEEE22__construct_one_at_endB8ue170006IJRKxEEEvDpOT_, symObjAddr: 0x4010, symBinAddr: 0x1000057A4, symSize: 0x90 }
  - { offsetInCU: 0x14694, offset: 0x14694, size: 0x8, addend: 0x0, symName: __ZNSt3__16vectorIxNS_9allocatorIxEEE21__push_back_slow_pathIRKxEEvOT_, symObjAddr: 0x40A0, symBinAddr: 0x100005834, symSize: 0xD8 }
  - { offsetInCU: 0x146F2, offset: 0x146F2, size: 0x8, addend: 0x0, symName: __ZNSt3__117__compressed_pairIPxNS_9allocatorIxEEE5firstB8ue170006Ev, symObjAddr: 0x4178, symBinAddr: 0x10000590C, symSize: 0x24 }
  - { offsetInCU: 0x14718, offset: 0x14718, size: 0x8, addend: 0x0, symName: __ZNSt3__122__compressed_pair_elemIPxLi0ELb0EE5__getB8ue170006Ev, symObjAddr: 0x419C, symBinAddr: 0x100005930, symSize: 0x14 }
  - { offsetInCU: 0x14757, offset: 0x14757, size: 0x8, addend: 0x0, symName: __ZNSt3__16vectorIxNS_9allocatorIxEEE21_ConstructTransactionC1B8ue170006ERS3_m, symObjAddr: 0x41B0, symBinAddr: 0x100005944, symSize: 0x3C }
  - { offsetInCU: 0x1479F, offset: 0x1479F, size: 0x8, addend: 0x0, symName: __ZNSt3__116allocator_traitsINS_9allocatorIxEEE9constructB8ue170006IxJRKxEvEEvRS2_PT_DpOT0_, symObjAddr: 0x41EC, symBinAddr: 0x100005980, symSize: 0x34 }
  - { offsetInCU: 0x147F6, offset: 0x147F6, size: 0x8, addend: 0x0, symName: __ZNSt3__16vectorIxNS_9allocatorIxEEE21_ConstructTransactionD1B8ue170006Ev, symObjAddr: 0x4220, symBinAddr: 0x1000059B4, symSize: 0x2C }
  - { offsetInCU: 0x14820, offset: 0x14820, size: 0x8, addend: 0x0, symName: __ZNSt3__16vectorIxNS_9allocatorIxEEE21_ConstructTransactionC2B8ue170006ERS3_m, symObjAddr: 0x424C, symBinAddr: 0x1000059E0, symSize: 0x44 }
  - { offsetInCU: 0x14868, offset: 0x14868, size: 0x8, addend: 0x0, symName: __ZNSt3__19allocatorIxE9constructB8ue170006IxJRKxEEEvPT_DpOT0_, symObjAddr: 0x4290, symBinAddr: 0x100005A24, symSize: 0x28 }
  - { offsetInCU: 0x148BE, offset: 0x148BE, size: 0x8, addend: 0x0, symName: __ZNSt3__16vectorIxNS_9allocatorIxEEE21_ConstructTransactionD2B8ue170006Ev, symObjAddr: 0x42B8, symBinAddr: 0x100005A4C, symSize: 0x20 }
  - { offsetInCU: 0x148E8, offset: 0x148E8, size: 0x8, addend: 0x0, symName: __ZNKSt3__16vectorIxNS_9allocatorIxEEE11__recommendB8ue170006Em, symObjAddr: 0x42D8, symBinAddr: 0x100005A6C, symSize: 0xB4 }
  - { offsetInCU: 0x1493D, offset: 0x1493D, size: 0x8, addend: 0x0, symName: __ZNSt3__114__split_bufferIxRNS_9allocatorIxEEEC1EmmS3_, symObjAddr: 0x438C, symBinAddr: 0x100005B20, symSize: 0x44 }
  - { offsetInCU: 0x14993, offset: 0x14993, size: 0x8, addend: 0x0, symName: __ZNSt3__114__split_bufferIxRNS_9allocatorIxEEED1Ev, symObjAddr: 0x44E0, symBinAddr: 0x100005C74, symSize: 0x2C }
  - { offsetInCU: 0x149BF, offset: 0x149BF, size: 0x8, addend: 0x0, symName: __ZNKSt3__16vectorIxNS_9allocatorIxEEE8max_sizeEv, symObjAddr: 0x450C, symBinAddr: 0x100005CA0, symSize: 0x60 }
  - { offsetInCU: 0x149E7, offset: 0x149E7, size: 0x8, addend: 0x0, symName: __ZNKSt3__16vectorIxNS_9allocatorIxEEE20__throw_length_errorB8ue170006Ev, symObjAddr: 0x456C, symBinAddr: 0x100005D00, symSize: 0x1C }
  - { offsetInCU: 0x14A17, offset: 0x14A17, size: 0x8, addend: 0x0, symName: __ZNSt3__116allocator_traitsINS_9allocatorIxEEE8max_sizeB8ue170006IS2_vEEmRKS2_, symObjAddr: 0x45B4, symBinAddr: 0x100005D48, symSize: 0x24 }
  - { offsetInCU: 0x14A45, offset: 0x14A45, size: 0x8, addend: 0x0, symName: __ZNKSt3__16vectorIxNS_9allocatorIxEEE7__allocB8ue170006Ev, symObjAddr: 0x45D8, symBinAddr: 0x100005D6C, symSize: 0x28 }
  - { offsetInCU: 0x14A6B, offset: 0x14A6B, size: 0x8, addend: 0x0, symName: __ZNKSt3__19allocatorIxE8max_sizeB8ue170006Ev, symObjAddr: 0x4600, symBinAddr: 0x100005D94, symSize: 0x14 }
  - { offsetInCU: 0x14A91, offset: 0x14A91, size: 0x8, addend: 0x0, symName: __ZNKSt3__117__compressed_pairIPxNS_9allocatorIxEEE6secondB8ue170006Ev, symObjAddr: 0x4614, symBinAddr: 0x100005DA8, symSize: 0x24 }
  - { offsetInCU: 0x14AB7, offset: 0x14AB7, size: 0x8, addend: 0x0, symName: __ZNKSt3__122__compressed_pair_elemINS_9allocatorIxEELi1ELb1EE5__getB8ue170006Ev, symObjAddr: 0x4638, symBinAddr: 0x100005DCC, symSize: 0x14 }
  - { offsetInCU: 0x14ADD, offset: 0x14ADD, size: 0x8, addend: 0x0, symName: __ZNSt3__114__split_bufferIxRNS_9allocatorIxEEEC2EmmS3_, symObjAddr: 0x46A0, symBinAddr: 0x100005E34, symSize: 0xD4 }
  - { offsetInCU: 0x14B50, offset: 0x14B50, size: 0x8, addend: 0x0, symName: __ZNSt3__117__compressed_pairIPxRNS_9allocatorIxEEEC1B8ue170006IDnS4_EEOT_OT0_, symObjAddr: 0x4774, symBinAddr: 0x100005F08, symSize: 0x3C }
  - { offsetInCU: 0x14BA8, offset: 0x14BA8, size: 0x8, addend: 0x0, symName: __ZNSt3__114__split_bufferIxRNS_9allocatorIxEEE7__allocB8ue170006Ev, symObjAddr: 0x47F0, symBinAddr: 0x100005F84, symSize: 0x28 }
  - { offsetInCU: 0x14BCE, offset: 0x14BCE, size: 0x8, addend: 0x0, symName: __ZNSt3__114__split_bufferIxRNS_9allocatorIxEEE9__end_capB8ue170006Ev, symObjAddr: 0x4818, symBinAddr: 0x100005FAC, symSize: 0x28 }
  - { offsetInCU: 0x14BF4, offset: 0x14BF4, size: 0x8, addend: 0x0, symName: __ZNSt3__117__compressed_pairIPxRNS_9allocatorIxEEEC2B8ue170006IDnS4_EEOT_OT0_, symObjAddr: 0x4840, symBinAddr: 0x100005FD4, symSize: 0x48 }
  - { offsetInCU: 0x14C4C, offset: 0x14C4C, size: 0x8, addend: 0x0, symName: __ZNSt3__122__compressed_pair_elemIRNS_9allocatorIxEELi1ELb0EEC2B8ue170006IS3_vEEOT_, symObjAddr: 0x4888, symBinAddr: 0x10000601C, symSize: 0x20 }
  - { offsetInCU: 0x14C8E, offset: 0x14C8E, size: 0x8, addend: 0x0, symName: __ZNSt3__19allocatorIxE8allocateB8ue170006Em, symObjAddr: 0x48A8, symBinAddr: 0x10000603C, symSize: 0x58 }
  - { offsetInCU: 0x14CC2, offset: 0x14CC2, size: 0x8, addend: 0x0, symName: __ZNSt3__117__compressed_pairIPxRNS_9allocatorIxEEE6secondB8ue170006Ev, symObjAddr: 0x4900, symBinAddr: 0x100006094, symSize: 0x28 }
  - { offsetInCU: 0x14CE8, offset: 0x14CE8, size: 0x8, addend: 0x0, symName: __ZNSt3__122__compressed_pair_elemIRNS_9allocatorIxEELi1ELb0EE5__getB8ue170006Ev, symObjAddr: 0x4928, symBinAddr: 0x1000060BC, symSize: 0x18 }
  - { offsetInCU: 0x14D0E, offset: 0x14D0E, size: 0x8, addend: 0x0, symName: __ZNSt3__117__compressed_pairIPxRNS_9allocatorIxEEE5firstB8ue170006Ev, symObjAddr: 0x4940, symBinAddr: 0x1000060D4, symSize: 0x24 }
  - { offsetInCU: 0x14D34, offset: 0x14D34, size: 0x8, addend: 0x0, symName: __ZNSt3__116reverse_iteratorIPxEC1B8ue170006ES1_, symObjAddr: 0x49DC, symBinAddr: 0x100006170, symSize: 0x34 }
  - { offsetInCU: 0x14D6C, offset: 0x14D6C, size: 0x8, addend: 0x0, symName: __ZNKSt3__116reverse_iteratorIPxE4baseB8ue170006Ev, symObjAddr: 0x4A10, symBinAddr: 0x1000061A4, symSize: 0x18 }
  - { offsetInCU: 0x14D92, offset: 0x14D92, size: 0x8, addend: 0x0, symName: __ZNKSt3__16vectorIxNS_9allocatorIxEEE14__annotate_newB8ue170006Em, symObjAddr: 0x4A64, symBinAddr: 0x1000061F8, symSize: 0xAC }
  - { offsetInCU: 0x14DEA, offset: 0x14DEA, size: 0x8, addend: 0x0, symName: __ZNKSt3__111__move_loopINS_17_ClassicAlgPolicyEEclB8ue170006INS_16reverse_iteratorIPxEES6_S6_EENS_4pairIT_T1_EES8_T0_S9_, symObjAddr: 0x4E00, symBinAddr: 0x100006594, symSize: 0xA0 }
  - { offsetInCU: 0x14E5A, offset: 0x14E5A, size: 0x8, addend: 0x0, symName: __ZNSt3__18_IterOpsINS_17_ClassicAlgPolicyEE11__iter_moveB8ue170006IRNS_16reverse_iteratorIPxEEEENS_9enable_ifIXsr12is_referenceIDTdeclsr3stdE7declvalIRT_EEEEE5valueEDTclsr3stdE4movedeclsr3stdE7declvalISA_EEEEE4typeEOS9_, symObjAddr: 0x5034, symBinAddr: 0x1000067C8, symSize: 0x28 }
  - { offsetInCU: 0x14E86, offset: 0x14E86, size: 0x8, addend: 0x0, symName: __ZNKSt3__116reverse_iteratorIPxEdeB8ue170006Ev, symObjAddr: 0x505C, symBinAddr: 0x1000067F0, symSize: 0x28 }
  - { offsetInCU: 0x14EBA, offset: 0x14EBA, size: 0x8, addend: 0x0, symName: __ZNSt3__116reverse_iteratorIPxEppB8ue170006Ev, symObjAddr: 0x5084, symBinAddr: 0x100006818, symSize: 0x20 }
  - { offsetInCU: 0x14EE0, offset: 0x14EE0, size: 0x8, addend: 0x0, symName: __ZNSt3__18_IterOpsINS_17_ClassicAlgPolicyEE25__validate_iter_referenceB8ue170006IRNS_16reverse_iteratorIPxEEEEvv, symObjAddr: 0x50A4, symBinAddr: 0x100006838, symSize: 0x4 }
  - { offsetInCU: 0x14EFE, offset: 0x14EFE, size: 0x8, addend: 0x0, symName: __ZNSt3__118__unwrap_iter_implINS_16reverse_iteratorIPxEELb0EE8__unwrapB8ue170006ES3_, symObjAddr: 0x50A8, symBinAddr: 0x10000683C, symSize: 0x24 }
  - { offsetInCU: 0x14F26, offset: 0x14F26, size: 0x8, addend: 0x0, symName: __ZNSt3__14pairINS_16reverse_iteratorIPxEES3_EC1B8ue170006IS3_S3_LPv0EEEOT_OT0_, symObjAddr: 0x50CC, symBinAddr: 0x100006860, symSize: 0x3C }
  - { offsetInCU: 0x14F84, offset: 0x14F84, size: 0x8, addend: 0x0, symName: __ZNSt3__14pairINS_16reverse_iteratorIPxEES3_EC2B8ue170006IS3_S3_LPv0EEEOT_OT0_, symObjAddr: 0x5108, symBinAddr: 0x10000689C, symSize: 0x34 }
  - { offsetInCU: 0x14FE2, offset: 0x14FE2, size: 0x8, addend: 0x0, symName: __ZNSt3__118__unwrap_iter_implINS_16reverse_iteratorIPxEELb0EE8__rewrapB8ue170006ES3_S3_, symObjAddr: 0x513C, symBinAddr: 0x1000068D0, symSize: 0x2C }
  - { offsetInCU: 0x1500F, offset: 0x1500F, size: 0x8, addend: 0x0, symName: __ZNSt3__116reverse_iteratorIPxEC2B8ue170006ES1_, symObjAddr: 0x5168, symBinAddr: 0x1000068FC, symSize: 0x28 }
  - { offsetInCU: 0x15047, offset: 0x15047, size: 0x8, addend: 0x0, symName: __ZNSt3__114__split_bufferIxRNS_9allocatorIxEEED2Ev, symObjAddr: 0x5190, symBinAddr: 0x100006924, symSize: 0x8C }
  - { offsetInCU: 0x15073, offset: 0x15073, size: 0x8, addend: 0x0, symName: __ZNSt3__114__split_bufferIxRNS_9allocatorIxEEE5clearB8ue170006Ev, symObjAddr: 0x521C, symBinAddr: 0x1000069B0, symSize: 0x28 }
  - { offsetInCU: 0x15099, offset: 0x15099, size: 0x8, addend: 0x0, symName: __ZNKSt3__114__split_bufferIxRNS_9allocatorIxEEE8capacityB8ue170006Ev, symObjAddr: 0x5244, symBinAddr: 0x1000069D8, symSize: 0x40 }
  - { offsetInCU: 0x150BF, offset: 0x150BF, size: 0x8, addend: 0x0, symName: __ZNSt3__114__split_bufferIxRNS_9allocatorIxEEE17__destruct_at_endB8ue170006EPx, symObjAddr: 0x5284, symBinAddr: 0x100006A18, symSize: 0x2C }
  - { offsetInCU: 0x150F3, offset: 0x150F3, size: 0x8, addend: 0x0, symName: __ZNSt3__114__split_bufferIxRNS_9allocatorIxEEE17__destruct_at_endB8ue170006EPxNS_17integral_constantIbLb0EEE, symObjAddr: 0x52B0, symBinAddr: 0x100006A44, symSize: 0x80 }
  - { offsetInCU: 0x15133, offset: 0x15133, size: 0x8, addend: 0x0, symName: __ZNKSt3__114__split_bufferIxRNS_9allocatorIxEEE9__end_capB8ue170006Ev, symObjAddr: 0x5330, symBinAddr: 0x100006AC4, symSize: 0x28 }
  - { offsetInCU: 0x15159, offset: 0x15159, size: 0x8, addend: 0x0, symName: __ZNKSt3__117__compressed_pairIPxRNS_9allocatorIxEEE5firstB8ue170006Ev, symObjAddr: 0x5358, symBinAddr: 0x100006AEC, symSize: 0x24 }
  - { offsetInCU: 0x1517F, offset: 0x1517F, size: 0x8, addend: 0x0, symName: __ZNSt3__16vectorIxNS_9allocatorIxEEE17__destruct_at_endB8ue170006EPx, symObjAddr: 0x537C, symBinAddr: 0x100006B10, symSize: 0x4C }
  - { offsetInCU: 0x151C3, offset: 0x151C3, size: 0x8, addend: 0x0, symName: __ZNKSt3__16vectorIxNS_9allocatorIxEEE17__annotate_shrinkB8ue170006Em, symObjAddr: 0x53C8, symBinAddr: 0x100006B5C, symSize: 0xB4 }
  - { offsetInCU: 0x151F8, offset: 0x151F8, size: 0x8, addend: 0x0, symName: __ZNSt3__16vectorIxNS_9allocatorIxEEE22__construct_one_at_endB8ue170006IJxEEEvDpOT_, symObjAddr: 0x547C, symBinAddr: 0x100006C10, symSize: 0x90 }
  - { offsetInCU: 0x15247, offset: 0x15247, size: 0x8, addend: 0x0, symName: __ZNSt3__16vectorIxNS_9allocatorIxEEE21__push_back_slow_pathIxEEvOT_, symObjAddr: 0x550C, symBinAddr: 0x100006CA0, symSize: 0xD8 }
  - { offsetInCU: 0x152A5, offset: 0x152A5, size: 0x8, addend: 0x0, symName: __ZNSt3__116allocator_traitsINS_9allocatorIxEEE9constructB8ue170006IxJxEvEEvRS2_PT_DpOT0_, symObjAddr: 0x55E4, symBinAddr: 0x100006D78, symSize: 0x34 }
  - { offsetInCU: 0x152FC, offset: 0x152FC, size: 0x8, addend: 0x0, symName: __ZNSt3__19allocatorIxE9constructB8ue170006IxJxEEEvPT_DpOT0_, symObjAddr: 0x5618, symBinAddr: 0x100006DAC, symSize: 0x28 }
  - { offsetInCU: 0x15352, offset: 0x15352, size: 0x8, addend: 0x0, symName: __ZNSt3__15queueIxNS_5dequeIxNS_9allocatorIxEEEEEC2B8ue170006Ev, symObjAddr: 0x5640, symBinAddr: 0x100006DD4, symSize: 0x2C }
  - { offsetInCU: 0x1537C, offset: 0x1537C, size: 0x8, addend: 0x0, symName: __ZNSt3__15dequeIxNS_9allocatorIxEEEC1B8ue170006Ev, symObjAddr: 0x566C, symBinAddr: 0x100006E00, symSize: 0x2C }
  - { offsetInCU: 0x153A6, offset: 0x153A6, size: 0x8, addend: 0x0, symName: __ZNSt3__15dequeIxNS_9allocatorIxEEEC2B8ue170006Ev, symObjAddr: 0x5698, symBinAddr: 0x100006E2C, symSize: 0x5C }
  - { offsetInCU: 0x153D0, offset: 0x153D0, size: 0x8, addend: 0x0, symName: __ZNSt3__114__split_bufferIPxNS_9allocatorIS1_EEEC1B8ue170006Ev, symObjAddr: 0x56F4, symBinAddr: 0x100006E88, symSize: 0x2C }
  - { offsetInCU: 0x153FA, offset: 0x153FA, size: 0x8, addend: 0x0, symName: __ZNSt3__117__compressed_pairImNS_9allocatorIxEEEC1B8ue170006IiNS_18__default_init_tagEEEOT_OT0_, symObjAddr: 0x5720, symBinAddr: 0x100006EB4, symSize: 0x3C }
  - { offsetInCU: 0x15452, offset: 0x15452, size: 0x8, addend: 0x0, symName: __ZNSt3__114__split_bufferIPxNS_9allocatorIS1_EEEC2B8ue170006Ev, symObjAddr: 0x575C, symBinAddr: 0x100006EF0, symSize: 0x50 }
  - { offsetInCU: 0x1547C, offset: 0x1547C, size: 0x8, addend: 0x0, symName: __ZNSt3__117__compressed_pairIPPxNS_9allocatorIS1_EEEC1B8ue170006IDnNS_18__default_init_tagEEEOT_OT0_, symObjAddr: 0x57AC, symBinAddr: 0x100006F40, symSize: 0x3C }
  - { offsetInCU: 0x154D4, offset: 0x154D4, size: 0x8, addend: 0x0, symName: __ZNSt3__117__compressed_pairIPPxNS_9allocatorIS1_EEEC2B8ue170006IDnNS_18__default_init_tagEEEOT_OT0_, symObjAddr: 0x57E8, symBinAddr: 0x100006F7C, symSize: 0x40 }
  - { offsetInCU: 0x1552C, offset: 0x1552C, size: 0x8, addend: 0x0, symName: __ZNSt3__122__compressed_pair_elemIPPxLi0ELb0EEC2B8ue170006IDnvEEOT_, symObjAddr: 0x5828, symBinAddr: 0x100006FBC, symSize: 0x1C }
  - { offsetInCU: 0x1556E, offset: 0x1556E, size: 0x8, addend: 0x0, symName: __ZNSt3__122__compressed_pair_elemINS_9allocatorIPxEELi1ELb1EEC2B8ue170006ENS_18__default_init_tagE, symObjAddr: 0x5844, symBinAddr: 0x100006FD8, symSize: 0x2C }
  - { offsetInCU: 0x155A2, offset: 0x155A2, size: 0x8, addend: 0x0, symName: __ZNSt3__19allocatorIPxEC2B8ue170006Ev, symObjAddr: 0x5870, symBinAddr: 0x100007004, symSize: 0x2C }
  - { offsetInCU: 0x155CC, offset: 0x155CC, size: 0x8, addend: 0x0, symName: __ZNSt3__116__non_trivial_ifILb1ENS_9allocatorIPxEEEC2B8ue170006Ev, symObjAddr: 0x589C, symBinAddr: 0x100007030, symSize: 0x14 }
  - { offsetInCU: 0x155F6, offset: 0x155F6, size: 0x8, addend: 0x0, symName: __ZNSt3__117__compressed_pairImNS_9allocatorIxEEEC2B8ue170006IiNS_18__default_init_tagEEEOT_OT0_, symObjAddr: 0x58B0, symBinAddr: 0x100007044, symSize: 0x40 }
  - { offsetInCU: 0x1564E, offset: 0x1564E, size: 0x8, addend: 0x0, symName: __ZNSt3__15dequeIxNS_9allocatorIxEEE9push_backERKx, symObjAddr: 0x58F0, symBinAddr: 0x100007084, symSize: 0xAC }
  - { offsetInCU: 0x15694, offset: 0x15694, size: 0x8, addend: 0x0, symName: __ZNKSt3__15dequeIxNS_9allocatorIxEEE12__back_spareB8ue170006Ev, symObjAddr: 0x599C, symBinAddr: 0x100007130, symSize: 0x54 }
  - { offsetInCU: 0x156BA, offset: 0x156BA, size: 0x8, addend: 0x0, symName: __ZNSt3__15dequeIxNS_9allocatorIxEEE19__add_back_capacityEv, symObjAddr: 0x59F0, symBinAddr: 0x100007184, symSize: 0x34C }
  - { offsetInCU: 0x15770, offset: 0x15770, size: 0x8, addend: 0x0, symName: __ZNKSt3__15dequeIxNS_9allocatorIxEEE24__annotate_increase_backB8ue170006Em, symObjAddr: 0x5D3C, symBinAddr: 0x1000074D0, symSize: 0x7C }
  - { offsetInCU: 0x157A5, offset: 0x157A5, size: 0x8, addend: 0x0, symName: __ZNKSt3__15dequeIxNS_9allocatorIxEEE10__capacityB8ue170006Ev, symObjAddr: 0x5DB8, symBinAddr: 0x10000754C, symSize: 0x60 }
  - { offsetInCU: 0x157CB, offset: 0x157CB, size: 0x8, addend: 0x0, symName: __ZNKSt3__15dequeIxNS_9allocatorIxEEE13__front_spareB8ue170006Ev, symObjAddr: 0x5E18, symBinAddr: 0x1000075AC, symSize: 0x18 }
  - { offsetInCU: 0x157F1, offset: 0x157F1, size: 0x8, addend: 0x0, symName: __ZNSt3__114__split_bufferIPxNS_9allocatorIS1_EEE9push_backB8ue170006ERKS1_, symObjAddr: 0x5E30, symBinAddr: 0x1000075C4, symSize: 0x260 }
  - { offsetInCU: 0x1586A, offset: 0x1586A, size: 0x8, addend: 0x0, symName: __ZNKSt3__114__split_bufferIPxNS_9allocatorIS1_EEE12__back_spareB8ue170006Ev, symObjAddr: 0x6090, symBinAddr: 0x100007824, symSize: 0x40 }
  - { offsetInCU: 0x15890, offset: 0x15890, size: 0x8, addend: 0x0, symName: __ZNSt3__114__split_bufferIPxNS_9allocatorIS1_EEE9push_backEOS1_, symObjAddr: 0x60D0, symBinAddr: 0x100007864, symSize: 0x260 }
  - { offsetInCU: 0x15909, offset: 0x15909, size: 0x8, addend: 0x0, symName: __ZNSt3__116allocator_traitsINS_9allocatorIxEEE8allocateB8ue170006ERS2_m, symObjAddr: 0x6330, symBinAddr: 0x100007AC4, symSize: 0x2C }
  - { offsetInCU: 0x1593C, offset: 0x1593C, size: 0x8, addend: 0x0, symName: __ZNSt3__114__split_bufferIPxNS_9allocatorIS1_EEE10push_frontEOS1_, symObjAddr: 0x635C, symBinAddr: 0x100007AF0, symSize: 0x25C }
  - { offsetInCU: 0x159B5, offset: 0x159B5, size: 0x8, addend: 0x0, symName: __ZNSt3__114__split_bufferIPxRNS_9allocatorIS1_EEEC1EmmS4_, symObjAddr: 0x65B8, symBinAddr: 0x100007D4C, symSize: 0x44 }
  - { offsetInCU: 0x15A10, offset: 0x15A10, size: 0x8, addend: 0x0, symName: __ZNSt3__122__allocator_destructorINS_9allocatorIxEEEC1B8ue170006ERS2_m, symObjAddr: 0x65FC, symBinAddr: 0x100007D90, symSize: 0x3C }
  - { offsetInCU: 0x15ABF, offset: 0x15ABF, size: 0x8, addend: 0x0, symName: __ZNSt3__110unique_ptrIPxNS_22__allocator_destructorINS_9allocatorIxEEEEEC1B8ue170006ILb1EvEES1_NS_16__dependent_typeINS_27__unique_ptr_deleter_sfinaeIS5_EEXT_EE20__good_rval_ref_typeE, symObjAddr: 0x6638, symBinAddr: 0x100007DCC, symSize: 0x3C }
  - { offsetInCU: 0x15B10, offset: 0x15B10, size: 0x8, addend: 0x0, symName: __ZNSt3__114__split_bufferIPxRNS_9allocatorIS1_EEE9push_backEOS1_, symObjAddr: 0x6674, symBinAddr: 0x100007E08, symSize: 0x260 }
  - { offsetInCU: 0x15B89, offset: 0x15B89, size: 0x8, addend: 0x0, symName: __ZNKSt3__110unique_ptrIPxNS_22__allocator_destructorINS_9allocatorIxEEEEE3getB8ue170006Ev, symObjAddr: 0x68D4, symBinAddr: 0x100008068, symSize: 0x28 }
  - { offsetInCU: 0x15BAF, offset: 0x15BAF, size: 0x8, addend: 0x0, symName: __ZNSt3__110unique_ptrIPxNS_22__allocator_destructorINS_9allocatorIxEEEEE7releaseB8ue170006Ev, symObjAddr: 0x68FC, symBinAddr: 0x100008090, symSize: 0x44 }
  - { offsetInCU: 0x15BE4, offset: 0x15BE4, size: 0x8, addend: 0x0, symName: __ZNSt3__114__split_bufferIPxRNS_9allocatorIS1_EEE10push_frontERKS1_, symObjAddr: 0x6940, symBinAddr: 0x1000080D4, symSize: 0x25C }
  - { offsetInCU: 0x15C5D, offset: 0x15C5D, size: 0x8, addend: 0x0, symName: __ZNSt3__114__split_bufferIPxNS_9allocatorIS1_EEE9__end_capB8ue170006Ev, symObjAddr: 0x6BD8, symBinAddr: 0x10000836C, symSize: 0x28 }
  - { offsetInCU: 0x15C83, offset: 0x15C83, size: 0x8, addend: 0x0, symName: __ZNSt3__114__split_bufferIPxRNS_9allocatorIS1_EEE9__end_capB8ue170006Ev, symObjAddr: 0x6C00, symBinAddr: 0x100008394, symSize: 0x28 }
  - { offsetInCU: 0x15CA9, offset: 0x15CA9, size: 0x8, addend: 0x0, symName: __ZNSt3__110unique_ptrIPxNS_22__allocator_destructorINS_9allocatorIxEEEEED1B8ue170006Ev, symObjAddr: 0x6C28, symBinAddr: 0x1000083BC, symSize: 0x2C }
  - { offsetInCU: 0x15CD3, offset: 0x15CD3, size: 0x8, addend: 0x0, symName: __ZNSt3__114__split_bufferIPxRNS_9allocatorIS1_EEED1Ev, symObjAddr: 0x6C54, symBinAddr: 0x1000083E8, symSize: 0x2C }
  - { offsetInCU: 0x15CFF, offset: 0x15CFF, size: 0x8, addend: 0x0, symName: __ZNSt3__114__split_bufferIPxRNS_9allocatorIS1_EEE18__construct_at_endINS_13move_iteratorIPS1_EEEENS_9enable_ifIXsr31__has_forward_iterator_categoryIT_EE5valueEvE4typeESB_SB_, symObjAddr: 0x6CC0, symBinAddr: 0x100008454, symSize: 0x60 }
  - { offsetInCU: 0x15D4C, offset: 0x15D4C, size: 0x8, addend: 0x0, symName: __ZNSt3__113move_iteratorIPPxEC1B8ue170006ES2_, symObjAddr: 0x6D20, symBinAddr: 0x1000084B4, symSize: 0x34 }
  - { offsetInCU: 0x15D84, offset: 0x15D84, size: 0x8, addend: 0x0, symName: __ZNSt3__116allocator_traitsINS_9allocatorIPxEEE9constructB8ue170006IS2_JRKS2_EvEEvRS3_PT_DpOT0_, symObjAddr: 0x6D54, symBinAddr: 0x1000084E8, symSize: 0x34 }
  - { offsetInCU: 0x15DFE, offset: 0x15DFE, size: 0x8, addend: 0x0, symName: __ZNKSt3__114__move_trivialclB8ue170006IPxS2_Li0EEENS_4pairIPT_PT0_EES5_S5_S7_, symObjAddr: 0x6F24, symBinAddr: 0x1000086B8, symSize: 0x48 }
  - { offsetInCU: 0x15E6B, offset: 0x15E6B, size: 0x8, addend: 0x0, symName: __ZNSt3__14pairIPPxS2_EC1B8ue170006IRS2_S2_LPv0EEEOT_OT0_, symObjAddr: 0x714C, symBinAddr: 0x1000088E0, symSize: 0x3C }
  - { offsetInCU: 0x15EC9, offset: 0x15EC9, size: 0x8, addend: 0x0, symName: __ZNSt3__14pairIPPxS2_EC2B8ue170006IRS2_S2_LPv0EEEOT_OT0_, symObjAddr: 0x7188, symBinAddr: 0x10000891C, symSize: 0x34 }
  - { offsetInCU: 0x15F27, offset: 0x15F27, size: 0x8, addend: 0x0, symName: __ZNSt3__118__unwrap_iter_implIPPxLb1EE8__unwrapB8ue170006ES2_, symObjAddr: 0x71BC, symBinAddr: 0x100008950, symSize: 0x24 }
  - { offsetInCU: 0x15F4A, offset: 0x15F4A, size: 0x8, addend: 0x0, symName: __ZNSt3__14pairIPPxS2_EC1B8ue170006IS2_S2_LPv0EEEOT_OT0_, symObjAddr: 0x71E0, symBinAddr: 0x100008974, symSize: 0x3C }
  - { offsetInCU: 0x15FA8, offset: 0x15FA8, size: 0x8, addend: 0x0, symName: __ZNSt3__14pairIPPxS2_EC2B8ue170006IS2_S2_LPv0EEEOT_OT0_, symObjAddr: 0x721C, symBinAddr: 0x1000089B0, symSize: 0x34 }
  - { offsetInCU: 0x16006, offset: 0x16006, size: 0x8, addend: 0x0, symName: __ZNSt3__118__unwrap_iter_implIPPxLb1EE8__rewrapB8ue170006ES2_S2_, symObjAddr: 0x7250, symBinAddr: 0x1000089E4, symSize: 0x50 }
  - { offsetInCU: 0x16037, offset: 0x16037, size: 0x8, addend: 0x0, symName: __ZNSt3__114__split_bufferIPxRNS_9allocatorIS1_EEE28__construct_at_end_with_sizeINS_13move_iteratorIPS1_EEEEvT_m, symObjAddr: 0x72A0, symBinAddr: 0x100008A34, symSize: 0xDC }
  - { offsetInCU: 0x1609D, offset: 0x1609D, size: 0x8, addend: 0x0, symName: __ZNSt3__114__split_bufferIPxRNS_9allocatorIS1_EEE21_ConstructTransactionC1B8ue170006EPPS1_m, symObjAddr: 0x73B8, symBinAddr: 0x100008B4C, symSize: 0x3C }
  - { offsetInCU: 0x160E3, offset: 0x160E3, size: 0x8, addend: 0x0, symName: __ZNSt3__116allocator_traitsINS_9allocatorIPxEEE9constructB8ue170006IS2_JS2_EvEEvRS3_PT_DpOT0_, symObjAddr: 0x73F4, symBinAddr: 0x100008B88, symSize: 0x34 }
  - { offsetInCU: 0x1613A, offset: 0x1613A, size: 0x8, addend: 0x0, symName: __ZNSt3__114__split_bufferIPxRNS_9allocatorIS1_EEE7__allocB8ue170006Ev, symObjAddr: 0x7428, symBinAddr: 0x100008BBC, symSize: 0x28 }
  - { offsetInCU: 0x16160, offset: 0x16160, size: 0x8, addend: 0x0, symName: __ZNKSt3__113move_iteratorIPPxEdeB8ue170006Ev, symObjAddr: 0x7450, symBinAddr: 0x100008BE4, symSize: 0x18 }
  - { offsetInCU: 0x16186, offset: 0x16186, size: 0x8, addend: 0x0, symName: __ZNSt3__113move_iteratorIPPxEppB8ue170006Ev, symObjAddr: 0x7468, symBinAddr: 0x100008BFC, symSize: 0x20 }
  - { offsetInCU: 0x161AC, offset: 0x161AC, size: 0x8, addend: 0x0, symName: __ZNSt3__114__split_bufferIPxRNS_9allocatorIS1_EEE21_ConstructTransactionD1B8ue170006Ev, symObjAddr: 0x7488, symBinAddr: 0x100008C1C, symSize: 0x2C }
  - { offsetInCU: 0x161D6, offset: 0x161D6, size: 0x8, addend: 0x0, symName: __ZNSt3__114__split_bufferIPxRNS_9allocatorIS1_EEE21_ConstructTransactionC2B8ue170006EPPS1_m, symObjAddr: 0x74B4, symBinAddr: 0x100008C48, symSize: 0x44 }
  - { offsetInCU: 0x1621C, offset: 0x1621C, size: 0x8, addend: 0x0, symName: __ZNSt3__19allocatorIPxE9constructB8ue170006IS1_JS1_EEEvPT_DpOT0_, symObjAddr: 0x74F8, symBinAddr: 0x100008C8C, symSize: 0x28 }
  - { offsetInCU: 0x16272, offset: 0x16272, size: 0x8, addend: 0x0, symName: __ZNSt3__117__compressed_pairIPPxRNS_9allocatorIS1_EEE6secondB8ue170006Ev, symObjAddr: 0x7520, symBinAddr: 0x100008CB4, symSize: 0x28 }
  - { offsetInCU: 0x16298, offset: 0x16298, size: 0x8, addend: 0x0, symName: __ZNSt3__122__compressed_pair_elemIRNS_9allocatorIPxEELi1ELb0EE5__getB8ue170006Ev, symObjAddr: 0x7548, symBinAddr: 0x100008CDC, symSize: 0x18 }
  - { offsetInCU: 0x162BE, offset: 0x162BE, size: 0x8, addend: 0x0, symName: __ZNSt3__114__split_bufferIPxRNS_9allocatorIS1_EEE21_ConstructTransactionD2B8ue170006Ev, symObjAddr: 0x7560, symBinAddr: 0x100008CF4, symSize: 0x20 }
  - { offsetInCU: 0x162E8, offset: 0x162E8, size: 0x8, addend: 0x0, symName: __ZNKSt3__113move_iteratorIPPxE4baseB8ue170006Ev, symObjAddr: 0x75F8, symBinAddr: 0x100008D8C, symSize: 0x18 }
  - { offsetInCU: 0x1630E, offset: 0x1630E, size: 0x8, addend: 0x0, symName: __ZNSt3__113move_iteratorIPPxEC2B8ue170006ES2_, symObjAddr: 0x7610, symBinAddr: 0x100008DA4, symSize: 0x20 }
  - { offsetInCU: 0x16346, offset: 0x16346, size: 0x8, addend: 0x0, symName: __ZNSt3__19allocatorIPxE9constructB8ue170006IS1_JRKS1_EEEvPT_DpOT0_, symObjAddr: 0x7630, symBinAddr: 0x100008DC4, symSize: 0x28 }
  - { offsetInCU: 0x163A6, offset: 0x163A6, size: 0x8, addend: 0x0, symName: __ZNKSt3__123__move_backward_trivialclB8ue170006IPxS2_Li0EEENS_4pairIPT_PT0_EES5_S5_S7_, symObjAddr: 0x77D4, symBinAddr: 0x100008F68, symSize: 0x48 }
  - { offsetInCU: 0x1640E, offset: 0x1640E, size: 0x8, addend: 0x0, symName: __ZNSt3__14pairIPPxS2_EC1B8ue170006IRS2_S5_LPv0EEEOT_OT0_, symObjAddr: 0x78E4, symBinAddr: 0x100009078, symSize: 0x3C }
  - { offsetInCU: 0x1646C, offset: 0x1646C, size: 0x8, addend: 0x0, symName: __ZNSt3__14pairIPPxS2_EC2B8ue170006IRS2_S5_LPv0EEEOT_OT0_, symObjAddr: 0x7920, symBinAddr: 0x1000090B4, symSize: 0x34 }
  - { offsetInCU: 0x164CA, offset: 0x164CA, size: 0x8, addend: 0x0, symName: __ZNSt3__114__split_bufferIPxRNS_9allocatorIS1_EEEC2EmmS4_, symObjAddr: 0x7954, symBinAddr: 0x1000090E8, symSize: 0xD4 }
  - { offsetInCU: 0x1653D, offset: 0x1653D, size: 0x8, addend: 0x0, symName: __ZNSt3__117__compressed_pairIPPxRNS_9allocatorIS1_EEEC1B8ue170006IDnS5_EEOT_OT0_, symObjAddr: 0x7A28, symBinAddr: 0x1000091BC, symSize: 0x3C }
  - { offsetInCU: 0x16595, offset: 0x16595, size: 0x8, addend: 0x0, symName: __ZNSt3__117__compressed_pairIPPxRNS_9allocatorIS1_EEEC2B8ue170006IDnS5_EEOT_OT0_, symObjAddr: 0x7AA4, symBinAddr: 0x100009238, symSize: 0x48 }
  - { offsetInCU: 0x165ED, offset: 0x165ED, size: 0x8, addend: 0x0, symName: __ZNSt3__122__compressed_pair_elemIRNS_9allocatorIPxEELi1ELb0EEC2B8ue170006IS4_vEEOT_, symObjAddr: 0x7AEC, symBinAddr: 0x100009280, symSize: 0x20 }
  - { offsetInCU: 0x1662F, offset: 0x1662F, size: 0x8, addend: 0x0, symName: __ZNSt3__19allocatorIPxE8allocateB8ue170006Em, symObjAddr: 0x7B0C, symBinAddr: 0x1000092A0, symSize: 0x58 }
  - { offsetInCU: 0x1666D, offset: 0x1666D, size: 0x8, addend: 0x0, symName: __ZNSt3__116allocator_traitsINS_9allocatorIPxEEE8max_sizeB8ue170006IS3_vEEmRKS3_, symObjAddr: 0x7B64, symBinAddr: 0x1000092F8, symSize: 0x24 }
  - { offsetInCU: 0x1669B, offset: 0x1669B, size: 0x8, addend: 0x0, symName: __ZNKSt3__19allocatorIPxE8max_sizeB8ue170006Ev, symObjAddr: 0x7B88, symBinAddr: 0x10000931C, symSize: 0x14 }
  - { offsetInCU: 0x166C1, offset: 0x166C1, size: 0x8, addend: 0x0, symName: __ZNSt3__122__allocator_destructorINS_9allocatorIxEEEC2B8ue170006ERS2_m, symObjAddr: 0x7B9C, symBinAddr: 0x100009330, symSize: 0x2C }
  - { offsetInCU: 0x16707, offset: 0x16707, size: 0x8, addend: 0x0, symName: __ZNSt3__110unique_ptrIPxNS_22__allocator_destructorINS_9allocatorIxEEEEEC2B8ue170006ILb1EvEES1_NS_16__dependent_typeINS_27__unique_ptr_deleter_sfinaeIS5_EEXT_EE20__good_rval_ref_typeE, symObjAddr: 0x7BC8, symBinAddr: 0x10000935C, symSize: 0x48 }
  - { offsetInCU: 0x16758, offset: 0x16758, size: 0x8, addend: 0x0, symName: __ZNSt3__117__compressed_pairIPxNS_22__allocator_destructorINS_9allocatorIxEEEEEC1B8ue170006IRS1_S5_EEOT_OT0_, symObjAddr: 0x7C10, symBinAddr: 0x1000093A4, symSize: 0x3C }
  - { offsetInCU: 0x167B0, offset: 0x167B0, size: 0x8, addend: 0x0, symName: __ZNSt3__117__compressed_pairIPxNS_22__allocator_destructorINS_9allocatorIxEEEEEC2B8ue170006IRS1_S5_EEOT_OT0_, symObjAddr: 0x7C4C, symBinAddr: 0x1000093E0, symSize: 0x48 }
  - { offsetInCU: 0x16808, offset: 0x16808, size: 0x8, addend: 0x0, symName: __ZNSt3__122__compressed_pair_elemIPxLi0ELb0EEC2B8ue170006IRS1_vEEOT_, symObjAddr: 0x7C94, symBinAddr: 0x100009428, symSize: 0x24 }
  - { offsetInCU: 0x1684A, offset: 0x1684A, size: 0x8, addend: 0x0, symName: __ZNSt3__122__compressed_pair_elemINS_22__allocator_destructorINS_9allocatorIxEEEELi1ELb0EEC2B8ue170006IS4_vEEOT_, symObjAddr: 0x7CB8, symBinAddr: 0x10000944C, symSize: 0x24 }
  - { offsetInCU: 0x1688C, offset: 0x1688C, size: 0x8, addend: 0x0, symName: __ZNKSt3__117__compressed_pairIPxNS_22__allocator_destructorINS_9allocatorIxEEEEE5firstB8ue170006Ev, symObjAddr: 0x7CDC, symBinAddr: 0x100009470, symSize: 0x24 }
  - { offsetInCU: 0x168B2, offset: 0x168B2, size: 0x8, addend: 0x0, symName: __ZNSt3__117__compressed_pairIPxNS_22__allocator_destructorINS_9allocatorIxEEEEE5firstB8ue170006Ev, symObjAddr: 0x7D00, symBinAddr: 0x100009494, symSize: 0x24 }
  - { offsetInCU: 0x168D8, offset: 0x168D8, size: 0x8, addend: 0x0, symName: __ZNSt3__117__compressed_pairIPPxNS_9allocatorIS1_EEE5firstB8ue170006Ev, symObjAddr: 0x7D24, symBinAddr: 0x1000094B8, symSize: 0x24 }
  - { offsetInCU: 0x168FE, offset: 0x168FE, size: 0x8, addend: 0x0, symName: __ZNSt3__122__compressed_pair_elemIPPxLi0ELb0EE5__getB8ue170006Ev, symObjAddr: 0x7D48, symBinAddr: 0x1000094DC, symSize: 0x14 }
  - { offsetInCU: 0x16924, offset: 0x16924, size: 0x8, addend: 0x0, symName: __ZNSt3__117__compressed_pairIPPxRNS_9allocatorIS1_EEE5firstB8ue170006Ev, symObjAddr: 0x7D5C, symBinAddr: 0x1000094F0, symSize: 0x24 }
  - { offsetInCU: 0x1694A, offset: 0x1694A, size: 0x8, addend: 0x0, symName: __ZNSt3__110unique_ptrIPxNS_22__allocator_destructorINS_9allocatorIxEEEEED2B8ue170006Ev, symObjAddr: 0x7D80, symBinAddr: 0x100009514, symSize: 0x30 }
  - { offsetInCU: 0x16974, offset: 0x16974, size: 0x8, addend: 0x0, symName: __ZNSt3__110unique_ptrIPxNS_22__allocator_destructorINS_9allocatorIxEEEEE5resetB8ue170006ES1_, symObjAddr: 0x7DB0, symBinAddr: 0x100009544, symSize: 0x78 }
  - { offsetInCU: 0x169B8, offset: 0x169B8, size: 0x8, addend: 0x0, symName: __ZNSt3__117__compressed_pairIPxNS_22__allocator_destructorINS_9allocatorIxEEEEE6secondB8ue170006Ev, symObjAddr: 0x7E28, symBinAddr: 0x1000095BC, symSize: 0x28 }
  - { offsetInCU: 0x169DE, offset: 0x169DE, size: 0x8, addend: 0x0, symName: __ZNSt3__122__allocator_destructorINS_9allocatorIxEEEclB8ue170006EPx, symObjAddr: 0x7E50, symBinAddr: 0x1000095E4, symSize: 0x34 }
  - { offsetInCU: 0x16A12, offset: 0x16A12, size: 0x8, addend: 0x0, symName: __ZNSt3__122__compressed_pair_elemINS_22__allocator_destructorINS_9allocatorIxEEEELi1ELb0EE5__getB8ue170006Ev, symObjAddr: 0x7E84, symBinAddr: 0x100009618, symSize: 0x14 }
  - { offsetInCU: 0x16A38, offset: 0x16A38, size: 0x8, addend: 0x0, symName: __ZNSt3__114__split_bufferIPxRNS_9allocatorIS1_EEED2Ev, symObjAddr: 0x7E98, symBinAddr: 0x10000962C, symSize: 0x8C }
  - { offsetInCU: 0x16A64, offset: 0x16A64, size: 0x8, addend: 0x0, symName: __ZNSt3__114__split_bufferIPxRNS_9allocatorIS1_EEE5clearB8ue170006Ev, symObjAddr: 0x7F24, symBinAddr: 0x1000096B8, symSize: 0x28 }
  - { offsetInCU: 0x16A8A, offset: 0x16A8A, size: 0x8, addend: 0x0, symName: __ZNKSt3__114__split_bufferIPxRNS_9allocatorIS1_EEE8capacityB8ue170006Ev, symObjAddr: 0x7F4C, symBinAddr: 0x1000096E0, symSize: 0x40 }
  - { offsetInCU: 0x16AB0, offset: 0x16AB0, size: 0x8, addend: 0x0, symName: __ZNSt3__114__split_bufferIPxRNS_9allocatorIS1_EEE17__destruct_at_endB8ue170006EPS1_, symObjAddr: 0x7F8C, symBinAddr: 0x100009720, symSize: 0x2C }
  - { offsetInCU: 0x16AE4, offset: 0x16AE4, size: 0x8, addend: 0x0, symName: __ZNSt3__114__split_bufferIPxRNS_9allocatorIS1_EEE17__destruct_at_endB8ue170006EPS1_NS_17integral_constantIbLb0EEE, symObjAddr: 0x7FB8, symBinAddr: 0x10000974C, symSize: 0x80 }
  - { offsetInCU: 0x16B24, offset: 0x16B24, size: 0x8, addend: 0x0, symName: __ZNKSt3__114__split_bufferIPxRNS_9allocatorIS1_EEE9__end_capB8ue170006Ev, symObjAddr: 0x8038, symBinAddr: 0x1000097CC, symSize: 0x28 }
  - { offsetInCU: 0x16B4A, offset: 0x16B4A, size: 0x8, addend: 0x0, symName: __ZNKSt3__117__compressed_pairIPPxRNS_9allocatorIS1_EEE5firstB8ue170006Ev, symObjAddr: 0x8060, symBinAddr: 0x1000097F4, symSize: 0x24 }
  - { offsetInCU: 0x16B84, offset: 0x16B84, size: 0x8, addend: 0x0, symName: __ZNSt3__16__treeINS_12__value_typeIxiEENS_19__map_value_compareIxS2_NS_4lessIxEELb1EEENS_9allocatorIS2_EEE25__emplace_unique_key_argsIxJRKNS_21piecewise_construct_tENS_5tupleIJRKxEEENSE_IJEEEEEENS_4pairINS_15__tree_iteratorIS2_PNS_11__tree_nodeIS2_PvEElEEbEERKT_DpOT0_, symObjAddr: 0x8084, symBinAddr: 0x100009818, symSize: 0x100 }
  - { offsetInCU: 0x16C5B, offset: 0x16C5B, size: 0x8, addend: 0x0, symName: __ZNKSt3__115__tree_iteratorINS_12__value_typeIxiEEPNS_11__tree_nodeIS2_PvEElEptB8ue170006Ev, symObjAddr: 0x81B4, symBinAddr: 0x100009948, symSize: 0x2C }
  - { offsetInCU: 0x16C81, offset: 0x16C81, size: 0x8, addend: 0x0, symName: __ZNSt3__16__treeINS_12__value_typeIxiEENS_19__map_value_compareIxS2_NS_4lessIxEELb1EEENS_9allocatorIS2_EEE12__find_equalIxEERPNS_16__tree_node_baseIPvEERPNS_15__tree_end_nodeISE_EERKT_, symObjAddr: 0x81E0, symBinAddr: 0x100009974, symSize: 0x184 }
  - { offsetInCU: 0x16CEE, offset: 0x16CEE, size: 0x8, addend: 0x0, symName: __ZNSt3__16__treeINS_12__value_typeIxiEENS_19__map_value_compareIxS2_NS_4lessIxEELb1EEENS_9allocatorIS2_EEE16__construct_nodeIJRKNS_21piecewise_construct_tENS_5tupleIJRKxEEENSE_IJEEEEEENS_10unique_ptrINS_11__tree_nodeIS2_PvEENS_22__tree_node_destructorINS7_ISM_EEEEEEDpOT_, symObjAddr: 0x8364, symBinAddr: 0x100009AF8, symSize: 0x120 }
  - { offsetInCU: 0x16D77, offset: 0x16D77, size: 0x8, addend: 0x0, symName: __ZNSt3__16__treeINS_12__value_typeIxiEENS_19__map_value_compareIxS2_NS_4lessIxEELb1EEENS_9allocatorIS2_EEE16__insert_node_atEPNS_15__tree_end_nodeIPNS_16__tree_node_baseIPvEEEERSE_SE_, symObjAddr: 0x8484, symBinAddr: 0x100009C18, symSize: 0xCC }
  - { offsetInCU: 0x16DCC, offset: 0x16DCC, size: 0x8, addend: 0x0, symName: __ZNKSt3__110unique_ptrINS_11__tree_nodeINS_12__value_typeIxiEEPvEENS_22__tree_node_destructorINS_9allocatorIS5_EEEEE3getB8ue170006Ev, symObjAddr: 0x8550, symBinAddr: 0x100009CE4, symSize: 0x28 }
  - { offsetInCU: 0x16DF2, offset: 0x16DF2, size: 0x8, addend: 0x0, symName: __ZNSt3__110unique_ptrINS_11__tree_nodeINS_12__value_typeIxiEEPvEENS_22__tree_node_destructorINS_9allocatorIS5_EEEEE7releaseB8ue170006Ev, symObjAddr: 0x8578, symBinAddr: 0x100009D0C, symSize: 0x44 }
  - { offsetInCU: 0x16E27, offset: 0x16E27, size: 0x8, addend: 0x0, symName: __ZNSt3__110unique_ptrINS_11__tree_nodeINS_12__value_typeIxiEEPvEENS_22__tree_node_destructorINS_9allocatorIS5_EEEEED1B8ue170006Ev, symObjAddr: 0x85BC, symBinAddr: 0x100009D50, symSize: 0x2C }
  - { offsetInCU: 0x16E51, offset: 0x16E51, size: 0x8, addend: 0x0, symName: __ZNSt3__115__tree_iteratorINS_12__value_typeIxiEEPNS_11__tree_nodeIS2_PvEElEC1B8ue170006ES6_, symObjAddr: 0x85E8, symBinAddr: 0x100009D7C, symSize: 0x34 }
  - { offsetInCU: 0x16E94, offset: 0x16E94, size: 0x8, addend: 0x0, symName: __ZNSt3__14pairINS_15__tree_iteratorINS_12__value_typeIxiEEPNS_11__tree_nodeIS3_PvEElEEbEC1B8ue170006IS8_RbLS5_0EEEOT_OT0_, symObjAddr: 0x861C, symBinAddr: 0x100009DB0, symSize: 0x3C }
  - { offsetInCU: 0x16EF2, offset: 0x16EF2, size: 0x8, addend: 0x0, symName: __ZNKSt3__16__treeINS_12__value_typeIxiEENS_19__map_value_compareIxS2_NS_4lessIxEELb1EEENS_9allocatorIS2_EEE10__root_ptrB8ue170006Ev, symObjAddr: 0x8658, symBinAddr: 0x100009DEC, symSize: 0x24 }
  - { offsetInCU: 0x16F18, offset: 0x16F18, size: 0x8, addend: 0x0, symName: __ZNSt3__16__treeINS_12__value_typeIxiEENS_19__map_value_compareIxS2_NS_4lessIxEELb1EEENS_9allocatorIS2_EEE10value_compB8ue170006Ev, symObjAddr: 0x867C, symBinAddr: 0x100009E10, symSize: 0x28 }
  - { offsetInCU: 0x16F3E, offset: 0x16F3E, size: 0x8, addend: 0x0, symName: __ZNKSt3__119__map_value_compareIxNS_12__value_typeIxiEENS_4lessIxEELb1EEclB8ue170006ERKxRKS2_, symObjAddr: 0x86A4, symBinAddr: 0x100009E38, symSize: 0x50 }
  - { offsetInCU: 0x16F82, offset: 0x16F82, size: 0x8, addend: 0x0, symName: __ZNKSt3__119__map_value_compareIxNS_12__value_typeIxiEENS_4lessIxEELb1EEclB8ue170006ERKS2_RKx, symObjAddr: 0x86F4, symBinAddr: 0x100009E88, symSize: 0x48 }
  - { offsetInCU: 0x16FC6, offset: 0x16FC6, size: 0x8, addend: 0x0, symName: __ZNSt3__117__compressed_pairImNS_19__map_value_compareIxNS_12__value_typeIxiEENS_4lessIxEELb1EEEE6secondB8ue170006Ev, symObjAddr: 0x873C, symBinAddr: 0x100009ED0, symSize: 0x24 }
  - { offsetInCU: 0x16FEC, offset: 0x16FEC, size: 0x8, addend: 0x0, symName: __ZNSt3__122__compressed_pair_elemINS_19__map_value_compareIxNS_12__value_typeIxiEENS_4lessIxEELb1EEELi1ELb1EE5__getB8ue170006Ev, symObjAddr: 0x8760, symBinAddr: 0x100009EF4, symSize: 0x14 }
  - { offsetInCU: 0x17012, offset: 0x17012, size: 0x8, addend: 0x0, symName: __ZNKSt3__14lessIxEclB8ue170006ERKxS3_, symObjAddr: 0x8774, symBinAddr: 0x100009F08, symSize: 0x34 }
  - { offsetInCU: 0x17056, offset: 0x17056, size: 0x8, addend: 0x0, symName: __ZNKSt3__112__value_typeIxiE11__get_valueB8ue170006Ev, symObjAddr: 0x87A8, symBinAddr: 0x100009F3C, symSize: 0x14 }
  - { offsetInCU: 0x1707C, offset: 0x1707C, size: 0x8, addend: 0x0, symName: __ZNSt3__116allocator_traitsINS_9allocatorINS_11__tree_nodeINS_12__value_typeIxiEEPvEEEEE8allocateB8ue170006ERS7_m, symObjAddr: 0x87BC, symBinAddr: 0x100009F50, symSize: 0x2C }
  - { offsetInCU: 0x170AF, offset: 0x170AF, size: 0x8, addend: 0x0, symName: __ZNSt3__122__tree_node_destructorINS_9allocatorINS_11__tree_nodeINS_12__value_typeIxiEEPvEEEEEC1B8ue170006ERS7_b, symObjAddr: 0x87E8, symBinAddr: 0x100009F7C, symSize: 0x48 }
  - { offsetInCU: 0x170FC, offset: 0x170FC, size: 0x8, addend: 0x0, symName: __ZNSt3__110unique_ptrINS_11__tree_nodeINS_12__value_typeIxiEEPvEENS_22__tree_node_destructorINS_9allocatorIS5_EEEEEC1B8ue170006ILb1EvEEPS5_NS_16__dependent_typeINS_27__unique_ptr_deleter_sfinaeIS9_EEXT_EE20__good_rval_ref_typeE, symObjAddr: 0x8830, symBinAddr: 0x100009FC4, symSize: 0x3C }
  - { offsetInCU: 0x1714D, offset: 0x1714D, size: 0x8, addend: 0x0, symName: __ZNSt3__116allocator_traitsINS_9allocatorINS_11__tree_nodeINS_12__value_typeIxiEEPvEEEEE9constructB8ue170006INS_4pairIKxiEEJRKNS_21piecewise_construct_tENS_5tupleIJRSB_EEENSG_IJEEEEvEEvRS7_PT_DpOT0_, symObjAddr: 0x886C, symBinAddr: 0x10000A000, symSize: 0x44 }
  - { offsetInCU: 0x171CC, offset: 0x171CC, size: 0x8, addend: 0x0, symName: __ZNKSt3__110unique_ptrINS_11__tree_nodeINS_12__value_typeIxiEEPvEENS_22__tree_node_destructorINS_9allocatorIS5_EEEEEptB8ue170006Ev, symObjAddr: 0x88B0, symBinAddr: 0x10000A044, symSize: 0x28 }
  - { offsetInCU: 0x171F2, offset: 0x171F2, size: 0x8, addend: 0x0, symName: __ZNSt3__110unique_ptrINS_11__tree_nodeINS_12__value_typeIxiEEPvEENS_22__tree_node_destructorINS_9allocatorIS5_EEEEE11get_deleterB8ue170006Ev, symObjAddr: 0x88D8, symBinAddr: 0x10000A06C, symSize: 0x24 }
  - { offsetInCU: 0x17218, offset: 0x17218, size: 0x8, addend: 0x0, symName: __ZNSt3__19allocatorINS_11__tree_nodeINS_12__value_typeIxiEEPvEEE8allocateB8ue170006Em, symObjAddr: 0x88FC, symBinAddr: 0x10000A090, symSize: 0x5C }
  - { offsetInCU: 0x17256, offset: 0x17256, size: 0x8, addend: 0x0, symName: __ZNSt3__116allocator_traitsINS_9allocatorINS_11__tree_nodeINS_12__value_typeIxiEEPvEEEEE8max_sizeB8ue170006IS7_vEEmRKS7_, symObjAddr: 0x8958, symBinAddr: 0x10000A0EC, symSize: 0x24 }
  - { offsetInCU: 0x17284, offset: 0x17284, size: 0x8, addend: 0x0, symName: __ZNKSt3__19allocatorINS_11__tree_nodeINS_12__value_typeIxiEEPvEEE8max_sizeB8ue170006Ev, symObjAddr: 0x897C, symBinAddr: 0x10000A110, symSize: 0x18 }
  - { offsetInCU: 0x172AA, offset: 0x172AA, size: 0x8, addend: 0x0, symName: __ZNSt3__122__tree_node_destructorINS_9allocatorINS_11__tree_nodeINS_12__value_typeIxiEEPvEEEEEC2B8ue170006ERS7_b, symObjAddr: 0x8994, symBinAddr: 0x10000A128, symSize: 0x38 }
  - { offsetInCU: 0x172F2, offset: 0x172F2, size: 0x8, addend: 0x0, symName: __ZNSt3__110unique_ptrINS_11__tree_nodeINS_12__value_typeIxiEEPvEENS_22__tree_node_destructorINS_9allocatorIS5_EEEEEC2B8ue170006ILb1EvEEPS5_NS_16__dependent_typeINS_27__unique_ptr_deleter_sfinaeIS9_EEXT_EE20__good_rval_ref_typeE, symObjAddr: 0x89CC, symBinAddr: 0x10000A160, symSize: 0x48 }
  - { offsetInCU: 0x17343, offset: 0x17343, size: 0x8, addend: 0x0, symName: __ZNSt3__117__compressed_pairIPNS_11__tree_nodeINS_12__value_typeIxiEEPvEENS_22__tree_node_destructorINS_9allocatorIS5_EEEEEC1B8ue170006IRS6_SA_EEOT_OT0_, symObjAddr: 0x8A14, symBinAddr: 0x10000A1A8, symSize: 0x3C }
  - { offsetInCU: 0x1739B, offset: 0x1739B, size: 0x8, addend: 0x0, symName: __ZNSt3__117__compressed_pairIPNS_11__tree_nodeINS_12__value_typeIxiEEPvEENS_22__tree_node_destructorINS_9allocatorIS5_EEEEEC2B8ue170006IRS6_SA_EEOT_OT0_, symObjAddr: 0x8A50, symBinAddr: 0x10000A1E4, symSize: 0x48 }
  - { offsetInCU: 0x173F3, offset: 0x173F3, size: 0x8, addend: 0x0, symName: __ZNSt3__122__compressed_pair_elemIPNS_11__tree_nodeINS_12__value_typeIxiEEPvEELi0ELb0EEC2B8ue170006IRS6_vEEOT_, symObjAddr: 0x8A98, symBinAddr: 0x10000A22C, symSize: 0x24 }
  - { offsetInCU: 0x17435, offset: 0x17435, size: 0x8, addend: 0x0, symName: __ZNSt3__122__compressed_pair_elemINS_22__tree_node_destructorINS_9allocatorINS_11__tree_nodeINS_12__value_typeIxiEEPvEEEEEELi1ELb0EEC2B8ue170006IS9_vEEOT_, symObjAddr: 0x8ABC, symBinAddr: 0x10000A250, symSize: 0x24 }
  - { offsetInCU: 0x17477, offset: 0x17477, size: 0x8, addend: 0x0, symName: __ZNSt3__19allocatorINS_11__tree_nodeINS_12__value_typeIxiEEPvEEE9constructB8ue170006INS_4pairIKxiEEJRKNS_21piecewise_construct_tENS_5tupleIJRS9_EEENSE_IJEEEEEEvPT_DpOT0_, symObjAddr: 0x8AE0, symBinAddr: 0x10000A274, symSize: 0x44 }
  - { offsetInCU: 0x174F3, offset: 0x174F3, size: 0x8, addend: 0x0, symName: __ZNSt3__14pairIKxiEC1B8ue170006IJRS1_EJEEENS_21piecewise_construct_tENS_5tupleIJDpT_EEENS6_IJDpT0_EEE, symObjAddr: 0x8B24, symBinAddr: 0x10000A2B8, symSize: 0x44 }
  - { offsetInCU: 0x1755A, offset: 0x1755A, size: 0x8, addend: 0x0, symName: __ZNSt3__14pairIKxiEC1B8ue170006IJRS1_EJEJLm0EEJEEENS_21piecewise_construct_tERNS_5tupleIJDpT_EEERNS6_IJDpT0_EEENS_15__tuple_indicesIJXspT1_EEEENSF_IJXspT2_EEEE, symObjAddr: 0x8B68, symBinAddr: 0x10000A2FC, symSize: 0x3C }
  - { offsetInCU: 0x175E7, offset: 0x175E7, size: 0x8, addend: 0x0, symName: __ZNSt3__14pairIKxiEC2B8ue170006IJRS1_EJEJLm0EEJEEENS_21piecewise_construct_tERNS_5tupleIJDpT_EEERNS6_IJDpT0_EEENS_15__tuple_indicesIJXspT1_EEEENSF_IJXspT2_EEEE, symObjAddr: 0x8BA4, symBinAddr: 0x10000A338, symSize: 0x48 }
  - { offsetInCU: 0x17674, offset: 0x17674, size: 0x8, addend: 0x0, symName: __ZNSt3__112__tuple_leafILm0ERKxLb0EE3getB8ue170006Ev, symObjAddr: 0x8C10, symBinAddr: 0x10000A3A4, symSize: 0x18 }
  - { offsetInCU: 0x1769A, offset: 0x1769A, size: 0x8, addend: 0x0, symName: __ZNKSt3__117__compressed_pairIPNS_11__tree_nodeINS_12__value_typeIxiEEPvEENS_22__tree_node_destructorINS_9allocatorIS5_EEEEE5firstB8ue170006Ev, symObjAddr: 0x8C28, symBinAddr: 0x10000A3BC, symSize: 0x24 }
  - { offsetInCU: 0x176C0, offset: 0x176C0, size: 0x8, addend: 0x0, symName: __ZNKSt3__122__compressed_pair_elemIPNS_11__tree_nodeINS_12__value_typeIxiEEPvEELi0ELb0EE5__getB8ue170006Ev, symObjAddr: 0x8C4C, symBinAddr: 0x10000A3E0, symSize: 0x14 }
  - { offsetInCU: 0x176E6, offset: 0x176E6, size: 0x8, addend: 0x0, symName: __ZNSt3__117__compressed_pairIPNS_11__tree_nodeINS_12__value_typeIxiEEPvEENS_22__tree_node_destructorINS_9allocatorIS5_EEEEE6secondB8ue170006Ev, symObjAddr: 0x8C60, symBinAddr: 0x10000A3F4, symSize: 0x28 }
  - { offsetInCU: 0x1770C, offset: 0x1770C, size: 0x8, addend: 0x0, symName: __ZNSt3__122__compressed_pair_elemINS_22__tree_node_destructorINS_9allocatorINS_11__tree_nodeINS_12__value_typeIxiEEPvEEEEEELi1ELb0EE5__getB8ue170006Ev, symObjAddr: 0x8C88, symBinAddr: 0x10000A41C, symSize: 0x14 }
  - { offsetInCU: 0x17732, offset: 0x17732, size: 0x8, addend: 0x0, symName: __ZNSt3__16__treeINS_12__value_typeIxiEENS_19__map_value_compareIxS2_NS_4lessIxEELb1EEENS_9allocatorIS2_EEE4sizeB8ue170006Ev, symObjAddr: 0x8FC8, symBinAddr: 0x10000A75C, symSize: 0x28 }
  - { offsetInCU: 0x17758, offset: 0x17758, size: 0x8, addend: 0x0, symName: __ZNKSt3__116__tree_node_baseIPvE15__parent_unsafeB8ue170006Ev, symObjAddr: 0x8FF0, symBinAddr: 0x10000A784, symSize: 0x18 }
  - { offsetInCU: 0x1777E, offset: 0x1777E, size: 0x8, addend: 0x0, symName: __ZNSt3__116__tree_node_baseIPvE12__set_parentB8ue170006EPS2_, symObjAddr: 0x91D8, symBinAddr: 0x10000A96C, symSize: 0x20 }
  - { offsetInCU: 0x177B3, offset: 0x177B3, size: 0x8, addend: 0x0, symName: __ZNSt3__117__compressed_pairImNS_19__map_value_compareIxNS_12__value_typeIxiEENS_4lessIxEELb1EEEE5firstB8ue170006Ev, symObjAddr: 0x91F8, symBinAddr: 0x10000A98C, symSize: 0x24 }
  - { offsetInCU: 0x177D9, offset: 0x177D9, size: 0x8, addend: 0x0, symName: __ZNSt3__117__compressed_pairIPNS_11__tree_nodeINS_12__value_typeIxiEEPvEENS_22__tree_node_destructorINS_9allocatorIS5_EEEEE5firstB8ue170006Ev, symObjAddr: 0x921C, symBinAddr: 0x10000A9B0, symSize: 0x24 }
  - { offsetInCU: 0x177FF, offset: 0x177FF, size: 0x8, addend: 0x0, symName: __ZNSt3__122__compressed_pair_elemIPNS_11__tree_nodeINS_12__value_typeIxiEEPvEELi0ELb0EE5__getB8ue170006Ev, symObjAddr: 0x9240, symBinAddr: 0x10000A9D4, symSize: 0x14 }
  - { offsetInCU: 0x17825, offset: 0x17825, size: 0x8, addend: 0x0, symName: __ZNSt3__110unique_ptrINS_11__tree_nodeINS_12__value_typeIxiEEPvEENS_22__tree_node_destructorINS_9allocatorIS5_EEEEED2B8ue170006Ev, symObjAddr: 0x9254, symBinAddr: 0x10000A9E8, symSize: 0x30 }
  - { offsetInCU: 0x1784F, offset: 0x1784F, size: 0x8, addend: 0x0, symName: __ZNSt3__110unique_ptrINS_11__tree_nodeINS_12__value_typeIxiEEPvEENS_22__tree_node_destructorINS_9allocatorIS5_EEEEE5resetB8ue170006EPS5_, symObjAddr: 0x9284, symBinAddr: 0x10000AA18, symSize: 0x78 }
  - { offsetInCU: 0x17893, offset: 0x17893, size: 0x8, addend: 0x0, symName: __ZNSt3__122__tree_node_destructorINS_9allocatorINS_11__tree_nodeINS_12__value_typeIxiEEPvEEEEEclB8ue170006EPS6_, symObjAddr: 0x92FC, symBinAddr: 0x10000AA90, symSize: 0x94 }
  - { offsetInCU: 0x178C8, offset: 0x178C8, size: 0x8, addend: 0x0, symName: __ZNSt3__115__tree_iteratorINS_12__value_typeIxiEEPNS_11__tree_nodeIS2_PvEElEC2B8ue170006ES6_, symObjAddr: 0x9390, symBinAddr: 0x10000AB24, symSize: 0x20 }
  - { offsetInCU: 0x17901, offset: 0x17901, size: 0x8, addend: 0x0, symName: __ZNSt3__14pairINS_15__tree_iteratorINS_12__value_typeIxiEEPNS_11__tree_nodeIS3_PvEElEEbEC2B8ue170006IS8_RbLS5_0EEEOT_OT0_, symObjAddr: 0x93B0, symBinAddr: 0x10000AB44, symSize: 0x38 }
  - { offsetInCU: 0x1795F, offset: 0x1795F, size: 0x8, addend: 0x0, symName: __ZNSt3__15tupleIJRKxEEC1B8ue170006INS_4_AndELi0EEES2_, symObjAddr: 0x93E8, symBinAddr: 0x10000AB7C, symSize: 0x34 }
  - { offsetInCU: 0x179A7, offset: 0x179A7, size: 0x8, addend: 0x0, symName: __ZNSt3__15tupleIJRKxEEC2B8ue170006INS_4_AndELi0EEES2_, symObjAddr: 0x941C, symBinAddr: 0x10000ABB0, symSize: 0x34 }
  - { offsetInCU: 0x179EF, offset: 0x179EF, size: 0x8, addend: 0x0, symName: __ZNSt3__112__tuple_implINS_15__tuple_indicesIJLm0EEEEJRKxEEC1B8ue170006IJLm0EEJS4_EJEJEJS4_EEENS1_IJXspT_EEEENS_13__tuple_typesIJDpT0_EEENS1_IJXspT1_EEEENS8_IJDpT2_EEEDpOT3_, symObjAddr: 0x9450, symBinAddr: 0x10000ABE4, symSize: 0x34 }
  - { offsetInCU: 0x17A80, offset: 0x17A80, size: 0x8, addend: 0x0, symName: __ZNSt3__112__tuple_implINS_15__tuple_indicesIJLm0EEEEJRKxEEC2B8ue170006IJLm0EEJS4_EJEJEJS4_EEENS1_IJXspT_EEEENS_13__tuple_typesIJDpT0_EEENS1_IJXspT1_EEEENS8_IJDpT2_EEEDpOT3_, symObjAddr: 0x9484, symBinAddr: 0x10000AC18, symSize: 0x34 }
  - { offsetInCU: 0x17B11, offset: 0x17B11, size: 0x8, addend: 0x0, symName: __ZNSt3__112__tuple_leafILm0ERKxLb0EEC2B8ue170006IS2_vEEOT_, symObjAddr: 0x94B8, symBinAddr: 0x10000AC4C, symSize: 0x20 }
  - { offsetInCU: 0x17B54, offset: 0x17B54, size: 0x8, addend: 0x0, symName: __ZNSt3__114pointer_traitsIPNS_12__value_typeIxiEEE10pointer_toB8ue170006ERS2_, symObjAddr: 0x94D8, symBinAddr: 0x10000AC6C, symSize: 0x14 }
  - { offsetInCU: 0x17B77, offset: 0x17B77, size: 0x8, addend: 0x0, symName: __ZNKSt3__115__tree_iteratorINS_12__value_typeIxiEEPNS_11__tree_nodeIS2_PvEElE8__get_npB8ue170006Ev, symObjAddr: 0x94EC, symBinAddr: 0x10000AC80, symSize: 0x18 }
  - { offsetInCU: 0x17B9D, offset: 0x17B9D, size: 0x8, addend: 0x0, symName: __ZNSt3__15dequeIxNS_9allocatorIxEEE5frontEv, symObjAddr: 0x9504, symBinAddr: 0x10000AC98, symSize: 0x50 }
  - { offsetInCU: 0x17BC5, offset: 0x17BC5, size: 0x8, addend: 0x0, symName: __ZNSt3__15dequeIxNS_9allocatorIxEEE9pop_frontEv, symObjAddr: 0x9554, symBinAddr: 0x10000ACE8, symSize: 0xD4 }
  - { offsetInCU: 0x17C1A, offset: 0x17C1A, size: 0x8, addend: 0x0, symName: __ZNKSt3__15dequeIxNS_9allocatorIxEEE23__annotate_shrink_frontB8ue170006Emm, symObjAddr: 0x9628, symBinAddr: 0x10000ADBC, symSize: 0x70 }
  - { offsetInCU: 0x17C5E, offset: 0x17C5E, size: 0x8, addend: 0x0, symName: __ZNSt3__15dequeIxNS_9allocatorIxEEE26__maybe_remove_front_spareB8ue170006Eb, symObjAddr: 0x9698, symBinAddr: 0x10000AE2C, symSize: 0xEC }
  - { offsetInCU: 0x17C93, offset: 0x17C93, size: 0x8, addend: 0x0, symName: __ZNKSt3__15dequeIxNS_9allocatorIxEEE20__front_spare_blocksB8ue170006Ev, symObjAddr: 0x9784, symBinAddr: 0x10000AF18, symSize: 0x2C }
  - { offsetInCU: 0x17CB9, offset: 0x17CB9, size: 0x8, addend: 0x0, symName: __ZNSt3__16__treeINS_12__value_typeIxiEENS_19__map_value_compareIxS2_NS_4lessIxEELb1EEENS_9allocatorIS2_EEE4findIxEENS_15__tree_iteratorIS2_PNS_11__tree_nodeIS2_PvEElEERKT_, symObjAddr: 0x97B0, symBinAddr: 0x10000AF44, symSize: 0xF8 }
  - { offsetInCU: 0x17D08, offset: 0x17D08, size: 0x8, addend: 0x0, symName: __ZNSt3__114__map_iteratorINS_15__tree_iteratorINS_12__value_typeIxiEEPNS_11__tree_nodeIS3_PvEElEEEC1B8ue170006ES8_, symObjAddr: 0x98A8, symBinAddr: 0x10000B03C, symSize: 0x34 }
  - { offsetInCU: 0x17D41, offset: 0x17D41, size: 0x8, addend: 0x0, symName: __ZNSt3__16__treeINS_12__value_typeIxiEENS_19__map_value_compareIxS2_NS_4lessIxEELb1EEENS_9allocatorIS2_EEE13__lower_boundIxEENS_15__tree_iteratorIS2_PNS_11__tree_nodeIS2_PvEElEERKT_SF_PNS_15__tree_end_nodeIPNS_16__tree_node_baseISD_EEEE, symObjAddr: 0x98DC, symBinAddr: 0x10000B070, symSize: 0xA4 }
  - { offsetInCU: 0x17D9F, offset: 0x17D9F, size: 0x8, addend: 0x0, symName: __ZNSt3__16__treeINS_12__value_typeIxiEENS_19__map_value_compareIxS2_NS_4lessIxEELb1EEENS_9allocatorIS2_EEE3endB8ue170006Ev, symObjAddr: 0x99B4, symBinAddr: 0x10000B148, symSize: 0x34 }
  - { offsetInCU: 0x17DC5, offset: 0x17DC5, size: 0x8, addend: 0x0, symName: __ZNKSt3__115__tree_iteratorINS_12__value_typeIxiEEPNS_11__tree_nodeIS2_PvEElEdeB8ue170006Ev, symObjAddr: 0x99E8, symBinAddr: 0x10000B17C, symSize: 0x28 }
  - { offsetInCU: 0x17DEB, offset: 0x17DEB, size: 0x8, addend: 0x0, symName: __ZNSt3__115__tree_iteratorINS_12__value_typeIxiEEPNS_11__tree_nodeIS2_PvEElEC1B8ue170006EPNS_15__tree_end_nodeIPNS_16__tree_node_baseIS4_EEEE, symObjAddr: 0x9A10, symBinAddr: 0x10000B1A4, symSize: 0x34 }
  - { offsetInCU: 0x17E24, offset: 0x17E24, size: 0x8, addend: 0x0, symName: __ZNSt3__115__tree_iteratorINS_12__value_typeIxiEEPNS_11__tree_nodeIS2_PvEElEC2B8ue170006EPNS_15__tree_end_nodeIPNS_16__tree_node_baseIS4_EEEE, symObjAddr: 0x9A44, symBinAddr: 0x10000B1D8, symSize: 0x20 }
  - { offsetInCU: 0x17E5D, offset: 0x17E5D, size: 0x8, addend: 0x0, symName: __ZNSt3__114__map_iteratorINS_15__tree_iteratorINS_12__value_typeIxiEEPNS_11__tree_nodeIS3_PvEElEEEC2B8ue170006ES8_, symObjAddr: 0x9A94, symBinAddr: 0x10000B228, symSize: 0x20 }
  - { offsetInCU: 0x17E96, offset: 0x17E96, size: 0x8, addend: 0x0, symName: __ZNSt3__114pointer_traitsIPNS_4pairIKxiEEE10pointer_toB8ue170006ERS3_, symObjAddr: 0x9AB4, symBinAddr: 0x10000B248, symSize: 0x14 }
  - { offsetInCU: 0x17EB9, offset: 0x17EB9, size: 0x8, addend: 0x0, symName: __ZNKSt3__19basic_iosIcNS_11char_traitsIcEEE5widenB8ue170006Ec, symObjAddr: 0x9AC8, symBinAddr: 0x10000B25C, symSize: 0x84 }
  - { offsetInCU: 0x17F22, offset: 0x17F22, size: 0x8, addend: 0x0, symName: __ZNKSt3__15ctypeIcE5widenB8ue170006Ec, symObjAddr: 0x9B78, symBinAddr: 0x10000B30C, symSize: 0x38 }
...
