---
triple:          'arm64-apple-darwin'
binary-path:     '/Users/kimtaeju/Desktop/algorithm/chapter21/FORTRESS'
relocations:
  - { offsetInCU: 0x4C97, offset: 0x4C97, size: 0x8, addend: 0x0, symName: __ZNSt3__17advanceB8ue170006IP8TreeNodellvEEvRT_T0_, symObjAddr: 0x25C8, symBinAddr: 0x100005720, symSize: 0x38 }
  - { offsetInCU: 0x4D02, offset: 0x4D02, size: 0x8, addend: 0x0, symName: __ZNSt3__124__put_character_sequenceB8ue170006IcNS_11char_traitsIcEEEERNS_13basic_ostreamIT_T0_EES7_PKS4_m, symObjAddr: 0x2AD4, symBinAddr: 0x100005C2C, symSize: 0x1EC }
  - { offsetInCU: 0x6B97, offset: 0x6B97, size: 0x8, addend: 0x0, symName: __ZNSt3__1lsB8ue170006INS_11char_traitsIcEEEERNS_13basic_ostreamIcT_EES6_PKc, symObjAddr: 0x2A4, symBinAddr: 0x1000033FC, symSize: 0x48 }
  - { offsetInCU: 0x6BDD, offset: 0x6BDD, size: 0x8, addend: 0x0, symName: __ZNSt3__14endlB8ue170006IcNS_11char_traitsIcEEEERNS_13basic_ostreamIT_T0_EES7_, symObjAddr: 0x318, symBinAddr: 0x100003470, symSize: 0x58 }
  - { offsetInCU: 0x6C1D, offset: 0x6C1D, size: 0x8, addend: 0x0, symName: __ZNSt3__13maxB8ue170006IiEERKT_S3_S3_, symObjAddr: 0x588, symBinAddr: 0x1000036E0, symSize: 0x2C }
  - { offsetInCU: 0x6C60, offset: 0x6C60, size: 0x8, addend: 0x0, symName: __ZNSt3__122__make_exception_guardB8ue170006INS_6vectorI8TreeNodeNS_9allocatorIS2_EEE16__destroy_vectorEEENS_28__exception_guard_exceptionsIT_EES8_, symObjAddr: 0xBFC, symBinAddr: 0x100003D54, symSize: 0x40 }
  - { offsetInCU: 0x6C95, offset: 0x6C95, size: 0x8, addend: 0x0, symName: __ZNSt3__119__allocate_at_leastB8ue170006INS_9allocatorI8TreeNodeEEEENS_19__allocation_resultINS_16allocator_traitsIT_E7pointerEEERS6_m, symObjAddr: 0xEEC, symBinAddr: 0x100004044, symSize: 0x40 }
  - { offsetInCU: 0x6CD8, offset: 0x6CD8, size: 0x8, addend: 0x0, symName: __ZNSt3__13minB8ue170006ImEERKT_S3_S3_, symObjAddr: 0x1044, symBinAddr: 0x10000419C, symSize: 0x2C }
  - { offsetInCU: 0x6F1C, offset: 0x6F1C, size: 0x8, addend: 0x0, symName: __ZNSt3__13minB8ue170006ImNS_6__lessIvvEEEERKT_S5_S5_T0_, symObjAddr: 0x10B4, symBinAddr: 0x10000420C, symSize: 0x54 }
  - { offsetInCU: 0x6FEC, offset: 0x6FEC, size: 0x8, addend: 0x0, symName: __ZNSt3__120__throw_length_errorB8ue170006EPKc, symObjAddr: 0x115C, symBinAddr: 0x1000042B4, symSize: 0x64 }
  - { offsetInCU: 0x7016, offset: 0x7016, size: 0x8, addend: 0x0, symName: __ZNSt3__117__libcpp_allocateB8ue170006Emm, symObjAddr: 0x12D0, symBinAddr: 0x100004428, symSize: 0x28 }
  - { offsetInCU: 0x7053, offset: 0x7053, size: 0x8, addend: 0x0, symName: __ZNSt3__121__libcpp_operator_newB8ue170006IJmEEEPvDpT_, symObjAddr: 0x12F8, symBinAddr: 0x100004450, symSize: 0x24 }
  - { offsetInCU: 0x708C, offset: 0x708C, size: 0x8, addend: 0x0, symName: __ZNSt3__112__to_addressB8ue170006I8TreeNodeEEPT_S3_, symObjAddr: 0x1414, symBinAddr: 0x10000456C, symSize: 0x14 }
  - { offsetInCU: 0x70C1, offset: 0x70C1, size: 0x8, addend: 0x0, symName: __ZNSt3__130__uninitialized_allocator_copyB8ue170006INS_9allocatorI8TreeNodeEEPS2_S4_S4_EET2_RT_T0_T1_S5_, symObjAddr: 0x14C4, symBinAddr: 0x10000461C, symSize: 0x80 }
  - { offsetInCU: 0x715E, offset: 0x715E, size: 0x8, addend: 0x0, symName: __ZNSt3__114__unwrap_rangeB8ue170006IP8TreeNodeS2_EENS_4pairIT0_S4_EET_S6_, symObjAddr: 0x15BC, symBinAddr: 0x100004714, symSize: 0x60 }
  - { offsetInCU: 0x71AA, offset: 0x71AA, size: 0x8, addend: 0x0, symName: __ZNSt3__135__uninitialized_allocator_copy_implB8ue170006INS_9allocatorI8TreeNodeEEPS2_S4_S4_EET2_RT_T0_T1_S5_, symObjAddr: 0x161C, symBinAddr: 0x100004774, symSize: 0xF4 }
  - { offsetInCU: 0x7248, offset: 0x7248, size: 0x8, addend: 0x0, symName: __ZNSt3__113__unwrap_iterB8ue170006IP8TreeNodeNS_18__unwrap_iter_implIS2_Lb1EEELi0EEEDTclsrT0_8__unwrapclsr3stdE7declvalIT_EEEES6_, symObjAddr: 0x1710, symBinAddr: 0x100004868, symSize: 0x24 }
  - { offsetInCU: 0x728C, offset: 0x728C, size: 0x8, addend: 0x0, symName: __ZNSt3__113__rewrap_iterB8ue170006IP8TreeNodeS2_NS_18__unwrap_iter_implIS2_Lb1EEEEET_S5_T0_, symObjAddr: 0x1734, symBinAddr: 0x10000488C, symSize: 0x3C }
  - { offsetInCU: 0x72E1, offset: 0x72E1, size: 0x8, addend: 0x0, symName: __ZNSt3__19make_pairB8ue170006IP8TreeNodeS2_EENS_4pairINS_18__unwrap_ref_decayIT_E4typeENS4_IT0_E4typeEEEOS5_OS8_, symObjAddr: 0x1770, symBinAddr: 0x1000048C8, symSize: 0x38 }
  - { offsetInCU: 0x7404, offset: 0x7404, size: 0x8, addend: 0x0, symName: __ZNSt3__122__make_exception_guardB8ue170006INS_29_AllocatorDestroyRangeReverseINS_9allocatorI8TreeNodeEEPS3_EEEENS_28__exception_guard_exceptionsIT_EES8_, symObjAddr: 0x1818, symBinAddr: 0x100004970, symSize: 0x4C }
  - { offsetInCU: 0x743A, offset: 0x743A, size: 0x8, addend: 0x0, symName: __ZNSt3__119__allocator_destroyB8ue170006INS_9allocatorI8TreeNodeEENS_16reverse_iteratorIPS2_EES6_EEvRT_T0_T1_, symObjAddr: 0x1AA8, symBinAddr: 0x100004C00, symSize: 0x70 }
  - { offsetInCU: 0x749D, offset: 0x749D, size: 0x8, addend: 0x0, symName: __ZNSt3__1neB8ue170006IP8TreeNodeS2_EEbRKNS_16reverse_iteratorIT_EERKNS3_IT0_EE, symObjAddr: 0x1B4C, symBinAddr: 0x100004CA4, symSize: 0x48 }
  - { offsetInCU: 0x74E9, offset: 0x74E9, size: 0x8, addend: 0x0, symName: __ZNSt3__112__to_addressB8ue170006INS_16reverse_iteratorIP8TreeNodeEEvEEu7__decayIDTclsr19__to_address_helperIT_EE6__callclsr3stdE7declvalIRKS5_EEEEES7_, symObjAddr: 0x1BC0, symBinAddr: 0x100004D18, symSize: 0x24 }
  - { offsetInCU: 0x759B, offset: 0x759B, size: 0x8, addend: 0x0, symName: __ZNSt3__119__libcpp_deallocateB8ue170006EPvmm, symObjAddr: 0x206C, symBinAddr: 0x1000051C4, symSize: 0x30 }
  - { offsetInCU: 0x75E3, offset: 0x75E3, size: 0x8, addend: 0x0, symName: __ZNSt3__127__do_deallocate_handle_sizeB8ue170006IJEEEvPvmDpT_, symObjAddr: 0x209C, symBinAddr: 0x1000051F4, symSize: 0x28 }
  - { offsetInCU: 0x7621, offset: 0x7621, size: 0x8, addend: 0x0, symName: __ZNSt3__124__libcpp_operator_deleteB8ue170006IJPvEEEvDpT_, symObjAddr: 0x20C4, symBinAddr: 0x10000521C, symSize: 0x24 }
  - { offsetInCU: 0x7656, offset: 0x7656, size: 0x8, addend: 0x0, symName: __ZNSt3__18distanceB8ue170006IP8TreeNodeEENS_15iterator_traitsIT_E15difference_typeES4_S4_, symObjAddr: 0x2350, symBinAddr: 0x1000054A8, symSize: 0x2C }
  - { offsetInCU: 0x7699, offset: 0x7699, size: 0x8, addend: 0x0, symName: __ZNSt3__14nextB8ue170006IP8TreeNodeEENS_9enable_ifIXsr29__has_input_iterator_categoryIT_EE5valueES4_E4typeES4_NS_15iterator_traitsIS4_E15difference_typeE, symObjAddr: 0x237C, symBinAddr: 0x1000054D4, symSize: 0x34 }
  - { offsetInCU: 0x76DC, offset: 0x76DC, size: 0x8, addend: 0x0, symName: __ZNSt3__14copyB8ue170006IP8TreeNodeS2_EET0_T_S4_S3_, symObjAddr: 0x23B0, symBinAddr: 0x100005508, symSize: 0x40 }
  - { offsetInCU: 0x7736, offset: 0x7736, size: 0x8, addend: 0x0, symName: __ZNSt3__16__copyB8ue170006INS_17_ClassicAlgPolicyEP8TreeNodeS3_S3_EENS_4pairIT0_T2_EES5_T1_S6_, symObjAddr: 0x23F0, symBinAddr: 0x100005548, symSize: 0x44 }
  - { offsetInCU: 0x77A2, offset: 0x77A2, size: 0x8, addend: 0x0, symName: __ZNSt3__121__convert_to_integralB8ue170006El, symObjAddr: 0x2600, symBinAddr: 0x100005758, symSize: 0x14 }
  - { offsetInCU: 0x77CE, offset: 0x77CE, size: 0x8, addend: 0x0, symName: __ZNSt3__19__advanceB8ue170006IP8TreeNodeEEvRT_NS_15iterator_traitsIS3_E15difference_typeENS_26random_access_iterator_tagE, symObjAddr: 0x2614, symBinAddr: 0x10000576C, symSize: 0x30 }
  - { offsetInCU: 0x7817, offset: 0x7817, size: 0x8, addend: 0x0, symName: __ZNSt3__123__dispatch_copy_or_moveB8ue170006INS_17_ClassicAlgPolicyENS_11__copy_loopIS1_EENS_14__copy_trivialEP8TreeNodeS6_S6_EENS_4pairIT2_T4_EES8_T3_S9_, symObjAddr: 0x2644, symBinAddr: 0x10000579C, symSize: 0x44 }
  - { offsetInCU: 0x7895, offset: 0x7895, size: 0x8, addend: 0x0, symName: __ZNSt3__121__unwrap_and_dispatchB8ue170006INS_10__overloadINS_11__copy_loopINS_17_ClassicAlgPolicyEEENS_14__copy_trivialEEEP8TreeNodeS8_S8_Li0EEENS_4pairIT0_T2_EESA_T1_SB_, symObjAddr: 0x2688, symBinAddr: 0x1000057E0, symSize: 0xB4 }
  - { offsetInCU: 0x797E, offset: 0x797E, size: 0x8, addend: 0x0, symName: __ZNSt3__114__rewrap_rangeB8ue170006IP8TreeNodeS2_EET_S3_T0_, symObjAddr: 0x27C4, symBinAddr: 0x10000591C, symSize: 0x2C }
  - { offsetInCU: 0x79CA, offset: 0x79CA, size: 0x8, addend: 0x0, symName: __ZNSt3__13maxB8ue170006ImEERKT_S3_S3_, symObjAddr: 0x2904, symBinAddr: 0x100005A5C, symSize: 0x2C }
  - { offsetInCU: 0x7A0D, offset: 0x7A0D, size: 0x8, addend: 0x0, symName: __ZNSt3__13maxB8ue170006ImNS_6__lessIvvEEEERKT_S5_S5_T0_, symObjAddr: 0x2930, symBinAddr: 0x100005A88, symSize: 0x54 }
  - { offsetInCU: 0x7A67, offset: 0x7A67, size: 0x8, addend: 0x0, symName: __ZNSt3__110__distanceB8ue170006IP8TreeNodeEENS_15iterator_traitsIT_E15difference_typeES4_S4_NS_26random_access_iterator_tagE, symObjAddr: 0x2984, symBinAddr: 0x100005ADC, symSize: 0x28 }
  - { offsetInCU: 0x7AB4, offset: 0x7AB4, size: 0x8, addend: 0x0, symName: __ZNSt3__13maxB8ue170006IiNS_6__lessIvvEEEERKT_S5_S5_T0_, symObjAddr: 0x29DC, symBinAddr: 0x100005B34, symSize: 0x54 }
  - { offsetInCU: 0x7B0E, offset: 0x7B0E, size: 0x8, addend: 0x0, symName: __ZNSt3__116__pad_and_outputB8ue170006IcNS_11char_traitsIcEEEENS_19ostreambuf_iteratorIT_T0_EES6_PKS4_S8_S8_RNS_8ios_baseES4_, symObjAddr: 0x2D10, symBinAddr: 0x100005E68, symSize: 0x240 }
  - { offsetInCU: 0x7BDD, offset: 0x7BDD, size: 0x8, addend: 0x0, symName: __ZNSt3__112__to_addressB8ue170006IKcEEPT_S3_, symObjAddr: 0x3278, symBinAddr: 0x1000063D0, symSize: 0x14 }
  - { offsetInCU: 0x7C45, offset: 0x7C45, size: 0x8, addend: 0x0, symName: __ZNSt3__19use_facetB8ue170006INS_5ctypeIcEEEERKT_RKNS_6localeE, symObjAddr: 0x34F8, symBinAddr: 0x100006650, symSize: 0x2C }
  - { offsetInCU: 0x8112, offset: 0x8112, size: 0x8, addend: 0x0, symName: __ZNSt3__118__constexpr_strlenB8ue170006EPKc, symObjAddr: 0x3590, symBinAddr: 0x1000066E8, symSize: 0x24 }
  - { offsetInCU: 0x813E, offset: 0x813E, size: 0x8, addend: 0x0, symName: __ZNSt3__142__uninitialized_allocator_move_if_noexceptB8ue170006INS_9allocatorI8TreeNodeEENS_16reverse_iteratorIPS2_EES6_S6_EET2_RT_T0_T1_S7_, symObjAddr: 0x3B38, symBinAddr: 0x100006C90, symSize: 0x11C }
  - { offsetInCU: 0x81DE, offset: 0x81DE, size: 0x8, addend: 0x0, symName: __ZNSt3__14swapB8ue170006IP8TreeNodeEENS_9enable_ifIXaasr21is_move_constructibleIT_EE5valuesr18is_move_assignableIS4_EE5valueEvE4typeERS4_S7_, symObjAddr: 0x3C54, symBinAddr: 0x100006DAC, symSize: 0x3C }
  - { offsetInCU: 0x822F, offset: 0x822F, size: 0x8, addend: 0x0, symName: __ZNSt3__122__make_exception_guardB8ue170006INS_29_AllocatorDestroyRangeReverseINS_9allocatorI8TreeNodeEENS_16reverse_iteratorIPS3_EEEEEENS_28__exception_guard_exceptionsIT_EESA_, symObjAddr: 0x3C90, symBinAddr: 0x100006DE8, symSize: 0x4C }
  - { offsetInCU: 0x8265, offset: 0x8265, size: 0x8, addend: 0x0, symName: __ZNSt3__119__allocator_destroyB8ue170006INS_9allocatorI8TreeNodeEENS_16reverse_iteratorINS4_IPS2_EEEES7_EEvRT_T0_T1_, symObjAddr: 0x40E8, symBinAddr: 0x100007240, symSize: 0x70 }
  - { offsetInCU: 0x82CA, offset: 0x82CA, size: 0x8, addend: 0x0, symName: __ZNSt3__1neB8ue170006INS_16reverse_iteratorIP8TreeNodeEES4_EEbRKNS1_IT_EERKNS1_IT0_EE, symObjAddr: 0x4194, symBinAddr: 0x1000072EC, symSize: 0x60 }
  - { offsetInCU: 0x8316, offset: 0x8316, size: 0x8, addend: 0x0, symName: __ZNSt3__112__to_addressB8ue170006INS_16reverse_iteratorINS1_IP8TreeNodeEEEEvEEu7__decayIDTclsr19__to_address_helperIT_EE6__callclsr3stdE7declvalIRKS6_EEEEES8_, symObjAddr: 0x41F4, symBinAddr: 0x10000734C, symSize: 0x24 }
  - { offsetInCU: 0x86BB, offset: 0x86BB, size: 0x8, addend: 0x0, symName: __ZSt28__throw_bad_array_new_lengthB8ue170006v, symObjAddr: 0x129C, symBinAddr: 0x1000043F4, symSize: 0x34 }
  - { offsetInCU: 0x8D3F, offset: 0x8D3F, size: 0x8, addend: 0x0, symName: __ZNSt3__16vectorI8TreeNodeNS_9allocatorIS1_EEE26__swap_out_circular_bufferERNS_14__split_bufferIS1_RS3_EE, symObjAddr: 0x37C4, symBinAddr: 0x10000691C, symSize: 0x110 }
  - { offsetInCU: 0xB0E4, offset: 0xB0E4, size: 0x8, addend: 0x0, symName: __Z14findParentNodeR8TreeNodeS0_, symObjAddr: 0x0, symBinAddr: 0x100003158, symSize: 0x21C }
  - { offsetInCU: 0xB152, offset: 0xB152, size: 0x8, addend: 0x0, symName: __ZNKSt3__16vectorI8TreeNodeNS_9allocatorIS1_EEE4sizeB8ue170006Ev, symObjAddr: 0x21C, symBinAddr: 0x100003374, symSize: 0x28 }
  - { offsetInCU: 0xB177, offset: 0xB177, size: 0x8, addend: 0x0, symName: __ZNSt3__16vectorI8TreeNodeNS_9allocatorIS1_EEEixB8ue170006Em, symObjAddr: 0x244, symBinAddr: 0x10000339C, symSize: 0x2C }
  - { offsetInCU: 0xB1B2, offset: 0xB1B2, size: 0x8, addend: 0x0, symName: __ZN8TreeNodeC1ERKS_, symObjAddr: 0x270, symBinAddr: 0x1000033C8, symSize: 0x34 }
  - { offsetInCU: 0xB1E6, offset: 0xB1E6, size: 0x8, addend: 0x0, symName: __ZNSt3__113basic_ostreamIcNS_11char_traitsIcEEElsB8ue170006EPFRS3_S4_E, symObjAddr: 0x2EC, symBinAddr: 0x100003444, symSize: 0x2C }
  - { offsetInCU: 0xB218, offset: 0xB218, size: 0x8, addend: 0x0, symName: __ZNSt3__16vectorI8TreeNodeNS_9allocatorIS1_EEE9push_backB8ue170006ERKS1_, symObjAddr: 0x370, symBinAddr: 0x1000034C8, symSize: 0x6C }
  - { offsetInCU: 0xB24E, offset: 0xB24E, size: 0x8, addend: 0x0, symName: __ZN8TreeNodeaSERKS_, symObjAddr: 0x3DC, symBinAddr: 0x100003534, symSize: 0x50 }
  - { offsetInCU: 0xB27E, offset: 0xB27E, size: 0x8, addend: 0x0, symName: __ZN8TreeNodeD1Ev, symObjAddr: 0x42C, symBinAddr: 0x100003584, symSize: 0x2C }
  - { offsetInCU: 0xB2A8, offset: 0xB2A8, size: 0x8, addend: 0x0, symName: __Z7findMax8TreeNode, symObjAddr: 0x458, symBinAddr: 0x1000035B0, symSize: 0x130 }
  - { offsetInCU: 0xB2F8, offset: 0xB2F8, size: 0x8, addend: 0x0, symName: _main, symObjAddr: 0x5B4, symBinAddr: 0x10000370C, symSize: 0x2D0 }
  - { offsetInCU: 0xB382, offset: 0xB382, size: 0x8, addend: 0x0, symName: __ZNSt3__16vectorI8TreeNodeNS_9allocatorIS1_EEEC1B8ue170006Ev, symObjAddr: 0x884, symBinAddr: 0x1000039DC, symSize: 0x2C }
  - { offsetInCU: 0xB3AB, offset: 0xB3AB, size: 0x8, addend: 0x0, symName: __ZN8TreeNodeC1Ev, symObjAddr: 0x8B0, symBinAddr: 0x100003A08, symSize: 0x2C }
  - { offsetInCU: 0xB3D6, offset: 0xB3D6, size: 0x8, addend: 0x0, symName: __ZNSt3__16vectorI8TreeNodeNS_9allocatorIS1_EEED1B8ue170006Ev, symObjAddr: 0x8DC, symBinAddr: 0x100003A34, symSize: 0x2C }
  - { offsetInCU: 0xB3FF, offset: 0xB3FF, size: 0x8, addend: 0x0, symName: __ZN8TreeNodeC2ERKS_, symObjAddr: 0x908, symBinAddr: 0x100003A60, symSize: 0x50 }
  - { offsetInCU: 0xB433, offset: 0xB433, size: 0x8, addend: 0x0, symName: __ZNSt3__16vectorI8TreeNodeNS_9allocatorIS1_EEEC1ERKS4_, symObjAddr: 0x958, symBinAddr: 0x100003AB0, symSize: 0x34 }
  - { offsetInCU: 0xB46D, offset: 0xB46D, size: 0x8, addend: 0x0, symName: __ZNSt3__16vectorI8TreeNodeNS_9allocatorIS1_EEEC2ERKS4_, symObjAddr: 0x98C, symBinAddr: 0x100003AE4, symSize: 0x94 }
  - { offsetInCU: 0xB4B1, offset: 0xB4B1, size: 0x8, addend: 0x0, symName: __ZNSt3__116allocator_traitsINS_9allocatorI8TreeNodeEEE37select_on_container_copy_constructionB8ue170006IS3_vvEES3_RKS3_, symObjAddr: 0xA20, symBinAddr: 0x100003B78, symSize: 0x10 }
  - { offsetInCU: 0xB4E0, offset: 0xB4E0, size: 0x8, addend: 0x0, symName: __ZNKSt3__16vectorI8TreeNodeNS_9allocatorIS1_EEE7__allocB8ue170006Ev, symObjAddr: 0xA30, symBinAddr: 0x100003B88, symSize: 0x28 }
  - { offsetInCU: 0xB50F, offset: 0xB50F, size: 0x8, addend: 0x0, symName: __ZNSt3__117__compressed_pairIP8TreeNodeNS_9allocatorIS1_EEEC1B8ue170006IDnS4_EEOT_OT0_, symObjAddr: 0xA58, symBinAddr: 0x100003BB0, symSize: 0x3C }
  - { offsetInCU: 0xB566, offset: 0xB566, size: 0x8, addend: 0x0, symName: __ZNSt3__16vectorI8TreeNodeNS_9allocatorIS1_EEE16__init_with_sizeB8ue170006IPS1_S6_EEvT_T0_m, symObjAddr: 0xA94, symBinAddr: 0x100003BEC, symSize: 0xB8 }
  - { offsetInCU: 0xB5D9, offset: 0xB5D9, size: 0x8, addend: 0x0, symName: __ZNKSt3__117__compressed_pairIP8TreeNodeNS_9allocatorIS1_EEE6secondB8ue170006Ev, symObjAddr: 0xB4C, symBinAddr: 0x100003CA4, symSize: 0x24 }
  - { offsetInCU: 0xB5FE, offset: 0xB5FE, size: 0x8, addend: 0x0, symName: __ZNKSt3__122__compressed_pair_elemINS_9allocatorI8TreeNodeEELi1ELb1EE5__getB8ue170006Ev, symObjAddr: 0xB70, symBinAddr: 0x100003CC8, symSize: 0x14 }
  - { offsetInCU: 0xB623, offset: 0xB623, size: 0x8, addend: 0x0, symName: __ZNSt3__117__compressed_pairIP8TreeNodeNS_9allocatorIS1_EEEC2B8ue170006IDnS4_EEOT_OT0_, symObjAddr: 0xB84, symBinAddr: 0x100003CDC, symSize: 0x44 }
  - { offsetInCU: 0xB67A, offset: 0xB67A, size: 0x8, addend: 0x0, symName: __ZNSt3__122__compressed_pair_elemIP8TreeNodeLi0ELb0EEC2B8ue170006IDnvEEOT_, symObjAddr: 0xBC8, symBinAddr: 0x100003D20, symSize: 0x1C }
  - { offsetInCU: 0xB6BB, offset: 0xB6BB, size: 0x8, addend: 0x0, symName: __ZNSt3__122__compressed_pair_elemINS_9allocatorI8TreeNodeEELi1ELb1EEC2B8ue170006IS3_vEEOT_, symObjAddr: 0xBE4, symBinAddr: 0x100003D3C, symSize: 0x18 }
  - { offsetInCU: 0xB6FC, offset: 0xB6FC, size: 0x8, addend: 0x0, symName: __ZNSt3__16vectorI8TreeNodeNS_9allocatorIS1_EEE16__destroy_vectorC1B8ue170006ERS4_, symObjAddr: 0xC3C, symBinAddr: 0x100003D94, symSize: 0x34 }
  - { offsetInCU: 0xB734, offset: 0xB734, size: 0x8, addend: 0x0, symName: __ZNSt3__16vectorI8TreeNodeNS_9allocatorIS1_EEE11__vallocateB8ue170006Em, symObjAddr: 0xC70, symBinAddr: 0x100003DC8, symSize: 0xB4 }
  - { offsetInCU: 0xB776, offset: 0xB776, size: 0x8, addend: 0x0, symName: __ZNSt3__16vectorI8TreeNodeNS_9allocatorIS1_EEE18__construct_at_endIPS1_S6_EEvT_T0_m, symObjAddr: 0xD24, symBinAddr: 0x100003E7C, symSize: 0x8C }
  - { offsetInCU: 0xB7EB, offset: 0xB7EB, size: 0x8, addend: 0x0, symName: __ZNSt3__128__exception_guard_exceptionsINS_6vectorI8TreeNodeNS_9allocatorIS2_EEE16__destroy_vectorEE10__completeB8ue170006Ev, symObjAddr: 0xDB0, symBinAddr: 0x100003F08, symSize: 0x1C }
  - { offsetInCU: 0xB810, offset: 0xB810, size: 0x8, addend: 0x0, symName: __ZNSt3__128__exception_guard_exceptionsINS_6vectorI8TreeNodeNS_9allocatorIS2_EEE16__destroy_vectorEED1B8ue170006Ev, symObjAddr: 0xDCC, symBinAddr: 0x100003F24, symSize: 0x2C }
  - { offsetInCU: 0xB839, offset: 0xB839, size: 0x8, addend: 0x0, symName: __ZNSt3__128__exception_guard_exceptionsINS_6vectorI8TreeNodeNS_9allocatorIS2_EEE16__destroy_vectorEEC1B8ue170006ES6_, symObjAddr: 0xDF8, symBinAddr: 0x100003F50, symSize: 0x34 }
  - { offsetInCU: 0xB870, offset: 0xB870, size: 0x8, addend: 0x0, symName: __ZNSt3__128__exception_guard_exceptionsINS_6vectorI8TreeNodeNS_9allocatorIS2_EEE16__destroy_vectorEEC2B8ue170006ES6_, symObjAddr: 0xE2C, symBinAddr: 0x100003F84, symSize: 0x24 }
  - { offsetInCU: 0xB8A7, offset: 0xB8A7, size: 0x8, addend: 0x0, symName: __ZNSt3__16vectorI8TreeNodeNS_9allocatorIS1_EEE16__destroy_vectorC2B8ue170006ERS4_, symObjAddr: 0xE50, symBinAddr: 0x100003FA8, symSize: 0x20 }
  - { offsetInCU: 0xB8DE, offset: 0xB8DE, size: 0x8, addend: 0x0, symName: __ZNKSt3__16vectorI8TreeNodeNS_9allocatorIS1_EEE8max_sizeEv, symObjAddr: 0xE70, symBinAddr: 0x100003FC8, symSize: 0x60 }
  - { offsetInCU: 0xB905, offset: 0xB905, size: 0x8, addend: 0x0, symName: __ZNKSt3__16vectorI8TreeNodeNS_9allocatorIS1_EEE20__throw_length_errorB8ue170006Ev, symObjAddr: 0xED0, symBinAddr: 0x100004028, symSize: 0x1C }
  - { offsetInCU: 0xB92A, offset: 0xB92A, size: 0x8, addend: 0x0, symName: __ZNSt3__16vectorI8TreeNodeNS_9allocatorIS1_EEE7__allocB8ue170006Ev, symObjAddr: 0xF2C, symBinAddr: 0x100004084, symSize: 0x28 }
  - { offsetInCU: 0xB94F, offset: 0xB94F, size: 0x8, addend: 0x0, symName: __ZNSt3__16vectorI8TreeNodeNS_9allocatorIS1_EEE9__end_capB8ue170006Ev, symObjAddr: 0xF54, symBinAddr: 0x1000040AC, symSize: 0x28 }
  - { offsetInCU: 0xB974, offset: 0xB974, size: 0x8, addend: 0x0, symName: __ZNKSt3__16vectorI8TreeNodeNS_9allocatorIS1_EEE14__annotate_newB8ue170006Em, symObjAddr: 0xF7C, symBinAddr: 0x1000040D4, symSize: 0xC8 }
  - { offsetInCU: 0xB9A8, offset: 0xB9A8, size: 0x8, addend: 0x0, symName: __ZNSt3__116allocator_traitsINS_9allocatorI8TreeNodeEEE8max_sizeB8ue170006IS3_vEEmRKS3_, symObjAddr: 0x1070, symBinAddr: 0x1000041C8, symSize: 0x24 }
  - { offsetInCU: 0xB9D6, offset: 0xB9D6, size: 0x8, addend: 0x0, symName: __ZNSt3__114numeric_limitsIlE3maxB8ue170006Ev, symObjAddr: 0x1094, symBinAddr: 0x1000041EC, symSize: 0x14 }
  - { offsetInCU: 0xB9FE, offset: 0xB9FE, size: 0x8, addend: 0x0, symName: __ZNKSt3__16__lessIvvEclB8ue170006ImmEEbRKT_RKT0_, symObjAddr: 0x1108, symBinAddr: 0x100004260, symSize: 0x34 }
  - { offsetInCU: 0xBA51, offset: 0xBA51, size: 0x8, addend: 0x0, symName: __ZNKSt3__19allocatorI8TreeNodeE8max_sizeB8ue170006Ev, symObjAddr: 0x113C, symBinAddr: 0x100004294, symSize: 0x18 }
  - { offsetInCU: 0xBA76, offset: 0xBA76, size: 0x8, addend: 0x0, symName: __ZNSt3__123__libcpp_numeric_limitsIlLb1EE3maxB8ue170006Ev, symObjAddr: 0x1154, symBinAddr: 0x1000042AC, symSize: 0x8 }
  - { offsetInCU: 0xBA8A, offset: 0xBA8A, size: 0x8, addend: 0x0, symName: __ZNSt12length_errorC1B8ue170006EPKc, symObjAddr: 0x11C0, symBinAddr: 0x100004318, symSize: 0x34 }
  - { offsetInCU: 0xBAC1, offset: 0xBAC1, size: 0x8, addend: 0x0, symName: __ZNSt12length_errorC2B8ue170006EPKc, symObjAddr: 0x11F4, symBinAddr: 0x10000434C, symSize: 0x4C }
  - { offsetInCU: 0xBAF8, offset: 0xBAF8, size: 0x8, addend: 0x0, symName: __ZNSt3__19allocatorI8TreeNodeE8allocateB8ue170006Em, symObjAddr: 0x1240, symBinAddr: 0x100004398, symSize: 0x5C }
  - { offsetInCU: 0xBB2B, offset: 0xBB2B, size: 0x8, addend: 0x0, symName: __ZNSt3__117__compressed_pairIP8TreeNodeNS_9allocatorIS1_EEE6secondB8ue170006Ev, symObjAddr: 0x131C, symBinAddr: 0x100004474, symSize: 0x24 }
  - { offsetInCU: 0xBB50, offset: 0xBB50, size: 0x8, addend: 0x0, symName: __ZNSt3__122__compressed_pair_elemINS_9allocatorI8TreeNodeEELi1ELb1EE5__getB8ue170006Ev, symObjAddr: 0x1340, symBinAddr: 0x100004498, symSize: 0x14 }
  - { offsetInCU: 0xBB75, offset: 0xBB75, size: 0x8, addend: 0x0, symName: __ZNSt3__117__compressed_pairIP8TreeNodeNS_9allocatorIS1_EEE5firstB8ue170006Ev, symObjAddr: 0x1354, symBinAddr: 0x1000044AC, symSize: 0x24 }
  - { offsetInCU: 0xBB9A, offset: 0xBB9A, size: 0x8, addend: 0x0, symName: __ZNSt3__122__compressed_pair_elemIP8TreeNodeLi0ELb0EE5__getB8ue170006Ev, symObjAddr: 0x1378, symBinAddr: 0x1000044D0, symSize: 0x14 }
  - { offsetInCU: 0xBBBF, offset: 0xBBBF, size: 0x8, addend: 0x0, symName: __ZNKSt3__16vectorI8TreeNodeNS_9allocatorIS1_EEE31__annotate_contiguous_containerB8ue170006EPKvS6_S6_S6_, symObjAddr: 0x138C, symBinAddr: 0x1000044E4, symSize: 0x20 }
  - { offsetInCU: 0xBC14, offset: 0xBC14, size: 0x8, addend: 0x0, symName: __ZNKSt3__16vectorI8TreeNodeNS_9allocatorIS1_EEE4dataB8ue170006Ev, symObjAddr: 0x13AC, symBinAddr: 0x100004504, symSize: 0x28 }
  - { offsetInCU: 0xBC39, offset: 0xBC39, size: 0x8, addend: 0x0, symName: __ZNKSt3__16vectorI8TreeNodeNS_9allocatorIS1_EEE8capacityB8ue170006Ev, symObjAddr: 0x13D4, symBinAddr: 0x10000452C, symSize: 0x40 }
  - { offsetInCU: 0xBC5E, offset: 0xBC5E, size: 0x8, addend: 0x0, symName: __ZNKSt3__16vectorI8TreeNodeNS_9allocatorIS1_EEE9__end_capB8ue170006Ev, symObjAddr: 0x1428, symBinAddr: 0x100004580, symSize: 0x28 }
  - { offsetInCU: 0xBC83, offset: 0xBC83, size: 0x8, addend: 0x0, symName: __ZNKSt3__117__compressed_pairIP8TreeNodeNS_9allocatorIS1_EEE5firstB8ue170006Ev, symObjAddr: 0x1450, symBinAddr: 0x1000045A8, symSize: 0x24 }
  - { offsetInCU: 0xBCA8, offset: 0xBCA8, size: 0x8, addend: 0x0, symName: __ZNKSt3__122__compressed_pair_elemIP8TreeNodeLi0ELb0EE5__getB8ue170006Ev, symObjAddr: 0x1474, symBinAddr: 0x1000045CC, symSize: 0x14 }
  - { offsetInCU: 0xBCE6, offset: 0xBCE6, size: 0x8, addend: 0x0, symName: __ZNSt3__16vectorI8TreeNodeNS_9allocatorIS1_EEE21_ConstructTransactionC1B8ue170006ERS4_m, symObjAddr: 0x1488, symBinAddr: 0x1000045E0, symSize: 0x3C }
  - { offsetInCU: 0xBD2D, offset: 0xBD2D, size: 0x8, addend: 0x0, symName: __ZNSt3__16vectorI8TreeNodeNS_9allocatorIS1_EEE21_ConstructTransactionD1B8ue170006Ev, symObjAddr: 0x1544, symBinAddr: 0x10000469C, symSize: 0x2C }
  - { offsetInCU: 0xBD56, offset: 0xBD56, size: 0x8, addend: 0x0, symName: __ZNSt3__16vectorI8TreeNodeNS_9allocatorIS1_EEE21_ConstructTransactionC2B8ue170006ERS4_m, symObjAddr: 0x1570, symBinAddr: 0x1000046C8, symSize: 0x4C }
  - { offsetInCU: 0xBDBB, offset: 0xBDBB, size: 0x8, addend: 0x0, symName: __ZNSt3__14pairIP8TreeNodeS2_EC1B8ue170006IS2_S2_LPv0EEEOT_OT0_, symObjAddr: 0x17A8, symBinAddr: 0x100004900, symSize: 0x3C }
  - { offsetInCU: 0xBE18, offset: 0xBE18, size: 0x8, addend: 0x0, symName: __ZNSt3__14pairIP8TreeNodeS2_EC2B8ue170006IS2_S2_LPv0EEEOT_OT0_, symObjAddr: 0x17E4, symBinAddr: 0x10000493C, symSize: 0x34 }
  - { offsetInCU: 0xBE75, offset: 0xBE75, size: 0x8, addend: 0x0, symName: __ZNSt3__129_AllocatorDestroyRangeReverseINS_9allocatorI8TreeNodeEEPS2_EC1B8ue170006ERS3_RS4_S7_, symObjAddr: 0x1864, symBinAddr: 0x1000049BC, symSize: 0x44 }
  - { offsetInCU: 0xBECB, offset: 0xBECB, size: 0x8, addend: 0x0, symName: __ZNSt3__116allocator_traitsINS_9allocatorI8TreeNodeEEE9constructB8ue170006IS2_JRS2_EvEEvRS3_PT_DpOT0_, symObjAddr: 0x18A8, symBinAddr: 0x100004A00, symSize: 0x34 }
  - { offsetInCU: 0xBF22, offset: 0xBF22, size: 0x8, addend: 0x0, symName: __ZNSt3__128__exception_guard_exceptionsINS_29_AllocatorDestroyRangeReverseINS_9allocatorI8TreeNodeEEPS3_EEE10__completeB8ue170006Ev, symObjAddr: 0x18DC, symBinAddr: 0x100004A34, symSize: 0x1C }
  - { offsetInCU: 0xBF47, offset: 0xBF47, size: 0x8, addend: 0x0, symName: __ZNSt3__128__exception_guard_exceptionsINS_29_AllocatorDestroyRangeReverseINS_9allocatorI8TreeNodeEEPS3_EEED1B8ue170006Ev, symObjAddr: 0x18F8, symBinAddr: 0x100004A50, symSize: 0x2C }
  - { offsetInCU: 0xBF70, offset: 0xBF70, size: 0x8, addend: 0x0, symName: __ZNSt3__128__exception_guard_exceptionsINS_29_AllocatorDestroyRangeReverseINS_9allocatorI8TreeNodeEEPS3_EEEC1B8ue170006ES6_, symObjAddr: 0x1924, symBinAddr: 0x100004A7C, symSize: 0x34 }
  - { offsetInCU: 0xBFA8, offset: 0xBFA8, size: 0x8, addend: 0x0, symName: __ZNSt3__128__exception_guard_exceptionsINS_29_AllocatorDestroyRangeReverseINS_9allocatorI8TreeNodeEEPS3_EEEC2B8ue170006ES6_, symObjAddr: 0x1958, symBinAddr: 0x100004AB0, symSize: 0x30 }
  - { offsetInCU: 0xBFE0, offset: 0xBFE0, size: 0x8, addend: 0x0, symName: __ZNSt3__129_AllocatorDestroyRangeReverseINS_9allocatorI8TreeNodeEEPS2_EC2B8ue170006ERS3_RS4_S7_, symObjAddr: 0x1988, symBinAddr: 0x100004AE0, symSize: 0x38 }
  - { offsetInCU: 0xC036, offset: 0xC036, size: 0x8, addend: 0x0, symName: __ZNSt3__19allocatorI8TreeNodeE9constructB8ue170006IS1_JRS1_EEEvPT_DpOT0_, symObjAddr: 0x19C0, symBinAddr: 0x100004B18, symSize: 0x30 }
  - { offsetInCU: 0xC08B, offset: 0xC08B, size: 0x8, addend: 0x0, symName: __ZNSt3__128__exception_guard_exceptionsINS_29_AllocatorDestroyRangeReverseINS_9allocatorI8TreeNodeEEPS3_EEED2B8ue170006Ev, symObjAddr: 0x19F0, symBinAddr: 0x100004B48, symSize: 0x50 }
  - { offsetInCU: 0xC0B4, offset: 0xC0B4, size: 0x8, addend: 0x0, symName: __ZNKSt3__129_AllocatorDestroyRangeReverseINS_9allocatorI8TreeNodeEEPS2_EclB8ue170006Ev, symObjAddr: 0x1A40, symBinAddr: 0x100004B98, symSize: 0x68 }
  - { offsetInCU: 0xC0D9, offset: 0xC0D9, size: 0x8, addend: 0x0, symName: __ZNSt3__116reverse_iteratorIP8TreeNodeEC1B8ue170006ES2_, symObjAddr: 0x1B18, symBinAddr: 0x100004C70, symSize: 0x34 }
  - { offsetInCU: 0xC110, offset: 0xC110, size: 0x8, addend: 0x0, symName: __ZNSt3__116allocator_traitsINS_9allocatorI8TreeNodeEEE7destroyB8ue170006IS2_vEEvRS3_PT_, symObjAddr: 0x1B94, symBinAddr: 0x100004CEC, symSize: 0x2C }
  - { offsetInCU: 0xC14D, offset: 0xC14D, size: 0x8, addend: 0x0, symName: __ZNSt3__116reverse_iteratorIP8TreeNodeEppB8ue170006Ev, symObjAddr: 0x1BE4, symBinAddr: 0x100004D3C, symSize: 0x20 }
  - { offsetInCU: 0xC172, offset: 0xC172, size: 0x8, addend: 0x0, symName: __ZNKSt3__116reverse_iteratorIP8TreeNodeE4baseB8ue170006Ev, symObjAddr: 0x1C04, symBinAddr: 0x100004D5C, symSize: 0x18 }
  - { offsetInCU: 0xC197, offset: 0xC197, size: 0x8, addend: 0x0, symName: __ZNSt3__19allocatorI8TreeNodeE7destroyB8ue170006EPS1_, symObjAddr: 0x1C1C, symBinAddr: 0x100004D74, symSize: 0x28 }
  - { offsetInCU: 0xC1CF, offset: 0xC1CF, size: 0x8, addend: 0x0, symName: __ZNSt3__119__to_address_helperINS_16reverse_iteratorIP8TreeNodeEEvE6__callB8ue170006ERKS4_, symObjAddr: 0x1C44, symBinAddr: 0x100004D9C, symSize: 0x38 }
  - { offsetInCU: 0xC1F2, offset: 0xC1F2, size: 0x8, addend: 0x0, symName: __ZNKSt3__116reverse_iteratorIP8TreeNodeEptB8ue170006Ev, symObjAddr: 0x1C7C, symBinAddr: 0x100004DD4, symSize: 0x24 }
  - { offsetInCU: 0xC217, offset: 0xC217, size: 0x8, addend: 0x0, symName: __ZNKSt3__116reverse_iteratorIP8TreeNodeEdeB8ue170006Ev, symObjAddr: 0x1CA0, symBinAddr: 0x100004DF8, symSize: 0x28 }
  - { offsetInCU: 0xC24A, offset: 0xC24A, size: 0x8, addend: 0x0, symName: __ZNSt3__116reverse_iteratorIP8TreeNodeEC2B8ue170006ES2_, symObjAddr: 0x1CC8, symBinAddr: 0x100004E20, symSize: 0x28 }
  - { offsetInCU: 0xC281, offset: 0xC281, size: 0x8, addend: 0x0, symName: __ZNSt3__118__unwrap_iter_implIP8TreeNodeLb1EE8__unwrapB8ue170006ES2_, symObjAddr: 0x1CF0, symBinAddr: 0x100004E48, symSize: 0x24 }
  - { offsetInCU: 0xC2A4, offset: 0xC2A4, size: 0x8, addend: 0x0, symName: __ZNSt3__118__unwrap_iter_implIP8TreeNodeLb1EE8__rewrapB8ue170006ES2_S2_, symObjAddr: 0x1D14, symBinAddr: 0x100004E6C, symSize: 0x58 }
  - { offsetInCU: 0xC2D5, offset: 0xC2D5, size: 0x8, addend: 0x0, symName: __ZNSt3__16vectorI8TreeNodeNS_9allocatorIS1_EEE21_ConstructTransactionD2B8ue170006Ev, symObjAddr: 0x1D6C, symBinAddr: 0x100004EC4, symSize: 0x20 }
  - { offsetInCU: 0xC2FE, offset: 0xC2FE, size: 0x8, addend: 0x0, symName: __ZNSt3__128__exception_guard_exceptionsINS_6vectorI8TreeNodeNS_9allocatorIS2_EEE16__destroy_vectorEED2B8ue170006Ev, symObjAddr: 0x1D8C, symBinAddr: 0x100004EE4, symSize: 0x50 }
  - { offsetInCU: 0xC327, offset: 0xC327, size: 0x8, addend: 0x0, symName: __ZNSt3__16vectorI8TreeNodeNS_9allocatorIS1_EEE16__destroy_vectorclB8ue170006Ev, symObjAddr: 0x1DDC, symBinAddr: 0x100004F34, symSize: 0x90 }
  - { offsetInCU: 0xC34C, offset: 0xC34C, size: 0x8, addend: 0x0, symName: __ZNSt3__16vectorI8TreeNodeNS_9allocatorIS1_EEE7__clearB8ue170006Ev, symObjAddr: 0x1E6C, symBinAddr: 0x100004FC4, symSize: 0x28 }
  - { offsetInCU: 0xC371, offset: 0xC371, size: 0x8, addend: 0x0, symName: __ZNKSt3__16vectorI8TreeNodeNS_9allocatorIS1_EEE17__annotate_deleteB8ue170006Ev, symObjAddr: 0x1E94, symBinAddr: 0x100004FEC, symSize: 0xD4 }
  - { offsetInCU: 0xC396, offset: 0xC396, size: 0x8, addend: 0x0, symName: __ZNSt3__116allocator_traitsINS_9allocatorI8TreeNodeEEE10deallocateB8ue170006ERS3_PS2_m, symObjAddr: 0x1F68, symBinAddr: 0x1000050C0, symSize: 0x34 }
  - { offsetInCU: 0xC3D8, offset: 0xC3D8, size: 0x8, addend: 0x0, symName: __ZNSt3__16vectorI8TreeNodeNS_9allocatorIS1_EEE22__base_destruct_at_endB8ue170006EPS1_, symObjAddr: 0x1F9C, symBinAddr: 0x1000050F4, symSize: 0x8C }
  - { offsetInCU: 0xC41B, offset: 0xC41B, size: 0x8, addend: 0x0, symName: __ZNSt3__19allocatorI8TreeNodeE10deallocateB8ue170006EPS1_m, symObjAddr: 0x2028, symBinAddr: 0x100005180, symSize: 0x44 }
  - { offsetInCU: 0xC45B, offset: 0xC45B, size: 0x8, addend: 0x0, symName: __ZNSt3__16vectorI8TreeNodeNS_9allocatorIS1_EEEaSB8ue170006ERKS4_, symObjAddr: 0x20E8, symBinAddr: 0x100005240, symSize: 0x68 }
  - { offsetInCU: 0xC491, offset: 0xC491, size: 0x8, addend: 0x0, symName: __ZNSt3__16vectorI8TreeNodeNS_9allocatorIS1_EEE19__copy_assign_allocB8ue170006ERKS4_, symObjAddr: 0x2150, symBinAddr: 0x1000052A8, symSize: 0x2C }
  - { offsetInCU: 0xC4C4, offset: 0xC4C4, size: 0x8, addend: 0x0, symName: __ZNSt3__16vectorI8TreeNodeNS_9allocatorIS1_EEE6assignIPS1_Li0EEEvT_S7_, symObjAddr: 0x217C, symBinAddr: 0x1000052D4, symSize: 0x5C }
  - { offsetInCU: 0xC518, offset: 0xC518, size: 0x8, addend: 0x0, symName: __ZNSt3__16vectorI8TreeNodeNS_9allocatorIS1_EEE19__copy_assign_allocB8ue170006ERKS4_NS_17integral_constantIbLb0EEE, symObjAddr: 0x21D8, symBinAddr: 0x100005330, symSize: 0x14 }
  - { offsetInCU: 0xC554, offset: 0xC554, size: 0x8, addend: 0x0, symName: __ZNSt3__16vectorI8TreeNodeNS_9allocatorIS1_EEE18__assign_with_sizeB8ue170006IPS1_S6_EEvT_T0_l, symObjAddr: 0x21EC, symBinAddr: 0x100005344, symSize: 0x164 }
  - { offsetInCU: 0xC605, offset: 0xC605, size: 0x8, addend: 0x0, symName: __ZNSt3__16vectorI8TreeNodeNS_9allocatorIS1_EEE17__destruct_at_endB8ue170006EPS1_, symObjAddr: 0x2434, symBinAddr: 0x10000558C, symSize: 0x4C }
  - { offsetInCU: 0xC647, offset: 0xC647, size: 0x8, addend: 0x0, symName: __ZNSt3__16vectorI8TreeNodeNS_9allocatorIS1_EEE13__vdeallocateEv, symObjAddr: 0x2480, symBinAddr: 0x1000055D8, symSize: 0x94 }
  - { offsetInCU: 0xC66D, offset: 0xC66D, size: 0x8, addend: 0x0, symName: __ZNKSt3__16vectorI8TreeNodeNS_9allocatorIS1_EEE11__recommendB8ue170006Em, symObjAddr: 0x2514, symBinAddr: 0x10000566C, symSize: 0xB4 }
  - { offsetInCU: 0xC6CB, offset: 0xC6CB, size: 0x8, addend: 0x0, symName: __ZNKSt3__111__copy_loopINS_17_ClassicAlgPolicyEEclB8ue170006IP8TreeNodeS5_S5_EENS_4pairIT_T1_EES7_T0_S8_, symObjAddr: 0x273C, symBinAddr: 0x100005894, symSize: 0x88 }
  - { offsetInCU: 0xC735, offset: 0xC735, size: 0x8, addend: 0x0, symName: __ZNKSt3__16vectorI8TreeNodeNS_9allocatorIS1_EEE17__annotate_shrinkB8ue170006Em, symObjAddr: 0x27F0, symBinAddr: 0x100005948, symSize: 0xD0 }
  - { offsetInCU: 0xC769, offset: 0xC769, size: 0x8, addend: 0x0, symName: __ZNSt3__16vectorI8TreeNodeNS_9allocatorIS1_EEE5clearB8ue170006Ev, symObjAddr: 0x28C0, symBinAddr: 0x100005A18, symSize: 0x44 }
  - { offsetInCU: 0xC79D, offset: 0xC79D, size: 0x8, addend: 0x0, symName: __ZN8TreeNodeD2Ev, symObjAddr: 0x29AC, symBinAddr: 0x100005B04, symSize: 0x30 }
  - { offsetInCU: 0xC7CD, offset: 0xC7CD, size: 0x8, addend: 0x0, symName: __ZNKSt3__16__lessIvvEclB8ue170006IiiEEbRKT_RKT0_, symObjAddr: 0x2A30, symBinAddr: 0x100005B88, symSize: 0x34 }
  - { offsetInCU: 0xC820, offset: 0xC820, size: 0x8, addend: 0x0, symName: __ZN8TreeNodeC2Ev, symObjAddr: 0x2A64, symBinAddr: 0x100005BBC, symSize: 0x30 }
  - { offsetInCU: 0xC84B, offset: 0xC84B, size: 0x8, addend: 0x0, symName: __ZNSt3__16vectorI8TreeNodeNS_9allocatorIS1_EEED2B8ue170006Ev, symObjAddr: 0x2A94, symBinAddr: 0x100005BEC, symSize: 0x40 }
  - { offsetInCU: 0xC874, offset: 0xC874, size: 0x8, addend: 0x0, symName: __ZNSt3__111char_traitsIcE6lengthB8ue170006EPKc, symObjAddr: 0x2CC0, symBinAddr: 0x100005E18, symSize: 0x34 }
  - { offsetInCU: 0xC8B5, offset: 0xC8B5, size: 0x8, addend: 0x0, symName: __ZNKSt3__113basic_ostreamIcNS_11char_traitsIcEEE6sentrycvbB8ue170006Ev, symObjAddr: 0x2CF4, symBinAddr: 0x100005E4C, symSize: 0x1C }
  - { offsetInCU: 0xC8DA, offset: 0xC8DA, size: 0x8, addend: 0x0, symName: __ZNSt3__119ostreambuf_iteratorIcNS_11char_traitsIcEEEC1B8ue170006ERNS_13basic_ostreamIcS2_EE, symObjAddr: 0x2F50, symBinAddr: 0x1000060A8, symSize: 0x34 }
  - { offsetInCU: 0xC911, offset: 0xC911, size: 0x8, addend: 0x0, symName: __ZNKSt3__18ios_base5flagsB8ue170006Ev, symObjAddr: 0x2F84, symBinAddr: 0x1000060DC, symSize: 0x18 }
  - { offsetInCU: 0xC937, offset: 0xC937, size: 0x8, addend: 0x0, symName: __ZNKSt3__19basic_iosIcNS_11char_traitsIcEEE4fillB8ue170006Ev, symObjAddr: 0x2F9C, symBinAddr: 0x1000060F4, symSize: 0x64 }
  - { offsetInCU: 0xC95E, offset: 0xC95E, size: 0x8, addend: 0x0, symName: __ZNKSt3__119ostreambuf_iteratorIcNS_11char_traitsIcEEE6failedB8ue170006Ev, symObjAddr: 0x3000, symBinAddr: 0x100006158, symSize: 0x24 }
  - { offsetInCU: 0xC983, offset: 0xC983, size: 0x8, addend: 0x0, symName: __ZNSt3__19basic_iosIcNS_11char_traitsIcEEE8setstateB8ue170006Ej, symObjAddr: 0x3024, symBinAddr: 0x10000617C, symSize: 0x2C }
  - { offsetInCU: 0xC9B7, offset: 0xC9B7, size: 0x8, addend: 0x0, symName: __ZNKSt3__18ios_base5widthB8ue170006Ev, symObjAddr: 0x3050, symBinAddr: 0x1000061A8, symSize: 0x18 }
  - { offsetInCU: 0xC9DE, offset: 0xC9DE, size: 0x8, addend: 0x0, symName: __ZNSt3__115basic_streambufIcNS_11char_traitsIcEEE5sputnB8ue170006EPKcl, symObjAddr: 0x3068, symBinAddr: 0x1000061C0, symSize: 0x3C }
  - { offsetInCU: 0xCA1F, offset: 0xCA1F, size: 0x8, addend: 0x0, symName: __ZNSt3__112basic_stringIcNS_11char_traitsIcEENS_9allocatorIcEEEC1B8ue170006Emc, symObjAddr: 0x30A4, symBinAddr: 0x1000061FC, symSize: 0x3C }
  - { offsetInCU: 0xCA66, offset: 0xCA66, size: 0x8, addend: 0x0, symName: __ZNKSt3__112basic_stringIcNS_11char_traitsIcEENS_9allocatorIcEEE4dataB8ue170006Ev, symObjAddr: 0x30E0, symBinAddr: 0x100006238, symSize: 0x28 }
  - { offsetInCU: 0xCA8B, offset: 0xCA8B, size: 0x8, addend: 0x0, symName: __ZNSt3__18ios_base5widthB8ue170006El, symObjAddr: 0x3108, symBinAddr: 0x100006260, symSize: 0x2C }
  - { offsetInCU: 0xCAD0, offset: 0xCAD0, size: 0x8, addend: 0x0, symName: __ZNSt3__112basic_stringIcNS_11char_traitsIcEENS_9allocatorIcEEEC2B8ue170006Emc, symObjAddr: 0x3134, symBinAddr: 0x10000628C, symSize: 0x4C }
  - { offsetInCU: 0xCB1C, offset: 0xCB1C, size: 0x8, addend: 0x0, symName: __ZNSt3__117__compressed_pairINS_12basic_stringIcNS_11char_traitsIcEENS_9allocatorIcEEE5__repES5_EC1B8ue170006INS_18__default_init_tagESA_EEOT_OT0_, symObjAddr: 0x3180, symBinAddr: 0x1000062D8, symSize: 0x3C }
  - { offsetInCU: 0xCB73, offset: 0xCB73, size: 0x8, addend: 0x0, symName: __ZNSt3__117__compressed_pairINS_12basic_stringIcNS_11char_traitsIcEENS_9allocatorIcEEE5__repES5_EC2B8ue170006INS_18__default_init_tagESA_EEOT_OT0_, symObjAddr: 0x31BC, symBinAddr: 0x100006314, symSize: 0x3C }
  - { offsetInCU: 0xCBCA, offset: 0xCBCA, size: 0x8, addend: 0x0, symName: __ZNSt3__122__compressed_pair_elemINS_12basic_stringIcNS_11char_traitsIcEENS_9allocatorIcEEE5__repELi0ELb0EEC2B8ue170006ENS_18__default_init_tagE, symObjAddr: 0x31F8, symBinAddr: 0x100006350, symSize: 0x14 }
  - { offsetInCU: 0xCBFD, offset: 0xCBFD, size: 0x8, addend: 0x0, symName: __ZNSt3__122__compressed_pair_elemINS_9allocatorIcEELi1ELb1EEC2B8ue170006ENS_18__default_init_tagE, symObjAddr: 0x320C, symBinAddr: 0x100006364, symSize: 0x2C }
  - { offsetInCU: 0xCC30, offset: 0xCC30, size: 0x8, addend: 0x0, symName: __ZNSt3__19allocatorIcEC2B8ue170006Ev, symObjAddr: 0x3238, symBinAddr: 0x100006390, symSize: 0x2C }
  - { offsetInCU: 0xCC59, offset: 0xCC59, size: 0x8, addend: 0x0, symName: __ZNSt3__116__non_trivial_ifILb1ENS_9allocatorIcEEEC2B8ue170006Ev, symObjAddr: 0x3264, symBinAddr: 0x1000063BC, symSize: 0x14 }
  - { offsetInCU: 0xCC82, offset: 0xCC82, size: 0x8, addend: 0x0, symName: __ZNKSt3__112basic_stringIcNS_11char_traitsIcEENS_9allocatorIcEEE13__get_pointerB8ue170006Ev, symObjAddr: 0x328C, symBinAddr: 0x1000063E4, symSize: 0x54 }
  - { offsetInCU: 0xCCA7, offset: 0xCCA7, size: 0x8, addend: 0x0, symName: __ZNKSt3__112basic_stringIcNS_11char_traitsIcEENS_9allocatorIcEEE9__is_longB8ue170006Ev, symObjAddr: 0x32E0, symBinAddr: 0x100006438, symSize: 0x38 }
  - { offsetInCU: 0xCCCC, offset: 0xCCCC, size: 0x8, addend: 0x0, symName: __ZNKSt3__112basic_stringIcNS_11char_traitsIcEENS_9allocatorIcEEE18__get_long_pointerB8ue170006Ev, symObjAddr: 0x3318, symBinAddr: 0x100006470, symSize: 0x28 }
  - { offsetInCU: 0xCCF1, offset: 0xCCF1, size: 0x8, addend: 0x0, symName: __ZNKSt3__112basic_stringIcNS_11char_traitsIcEENS_9allocatorIcEEE19__get_short_pointerB8ue170006Ev, symObjAddr: 0x3340, symBinAddr: 0x100006498, symSize: 0x28 }
  - { offsetInCU: 0xCD16, offset: 0xCD16, size: 0x8, addend: 0x0, symName: __ZNKSt3__117__compressed_pairINS_12basic_stringIcNS_11char_traitsIcEENS_9allocatorIcEEE5__repES5_E5firstB8ue170006Ev, symObjAddr: 0x3368, symBinAddr: 0x1000064C0, symSize: 0x24 }
  - { offsetInCU: 0xCD3B, offset: 0xCD3B, size: 0x8, addend: 0x0, symName: __ZNKSt3__122__compressed_pair_elemINS_12basic_stringIcNS_11char_traitsIcEENS_9allocatorIcEEE5__repELi0ELb0EE5__getB8ue170006Ev, symObjAddr: 0x338C, symBinAddr: 0x1000064E4, symSize: 0x14 }
  - { offsetInCU: 0xCD60, offset: 0xCD60, size: 0x8, addend: 0x0, symName: __ZNSt3__114pointer_traitsIPKcE10pointer_toB8ue170006ERS1_, symObjAddr: 0x33A0, symBinAddr: 0x1000064F8, symSize: 0x14 }
  - { offsetInCU: 0xCD83, offset: 0xCD83, size: 0x8, addend: 0x0, symName: __ZNSt3__119ostreambuf_iteratorIcNS_11char_traitsIcEEEC2B8ue170006ERNS_13basic_ostreamIcS2_EE, symObjAddr: 0x33B4, symBinAddr: 0x10000650C, symSize: 0x54 }
  - { offsetInCU: 0xCDB9, offset: 0xCDB9, size: 0x8, addend: 0x0, symName: __ZNKSt3__19basic_iosIcNS_11char_traitsIcEEE5rdbufB8ue170006Ev, symObjAddr: 0x3408, symBinAddr: 0x100006560, symSize: 0x24 }
  - { offsetInCU: 0xCDE0, offset: 0xCDE0, size: 0x8, addend: 0x0, symName: __ZNKSt3__18ios_base5rdbufB8ue170006Ev, symObjAddr: 0x342C, symBinAddr: 0x100006584, symSize: 0x18 }
  - { offsetInCU: 0xCE05, offset: 0xCE05, size: 0x8, addend: 0x0, symName: __ZNSt3__111char_traitsIcE11eq_int_typeB8ue170006Eii, symObjAddr: 0x3444, symBinAddr: 0x10000659C, symSize: 0x28 }
  - { offsetInCU: 0xCE38, offset: 0xCE38, size: 0x8, addend: 0x0, symName: __ZNSt3__111char_traitsIcE3eofB8ue170006Ev, symObjAddr: 0x346C, symBinAddr: 0x1000065C4, symSize: 0x8 }
  - { offsetInCU: 0xCE4B, offset: 0xCE4B, size: 0x8, addend: 0x0, symName: __ZNKSt3__19basic_iosIcNS_11char_traitsIcEEE5widenB8ue170006Ec, symObjAddr: 0x3474, symBinAddr: 0x1000065CC, symSize: 0x84 }
  - { offsetInCU: 0xCEB8, offset: 0xCEB8, size: 0x8, addend: 0x0, symName: __ZNKSt3__15ctypeIcE5widenB8ue170006Ec, symObjAddr: 0x3524, symBinAddr: 0x10000667C, symSize: 0x38 }
  - { offsetInCU: 0xCEEB, offset: 0xCEEB, size: 0x8, addend: 0x0, symName: __ZNSt3__18ios_base8setstateB8ue170006Ej, symObjAddr: 0x355C, symBinAddr: 0x1000066B4, symSize: 0x34 }
  - { offsetInCU: 0xCF21, offset: 0xCF21, size: 0x8, addend: 0x0, symName: __ZNSt3__16vectorI8TreeNodeNS_9allocatorIS1_EEE22__construct_one_at_endB8ue170006IJRKS1_EEEvDpOT_, symObjAddr: 0x35B4, symBinAddr: 0x10000670C, symSize: 0x90 }
  - { offsetInCU: 0xCF6E, offset: 0xCF6E, size: 0x8, addend: 0x0, symName: __ZNSt3__16vectorI8TreeNodeNS_9allocatorIS1_EEE21__push_back_slow_pathIRKS1_EEvOT_, symObjAddr: 0x3644, symBinAddr: 0x10000679C, symSize: 0xD8 }
  - { offsetInCU: 0xCFCB, offset: 0xCFCB, size: 0x8, addend: 0x0, symName: __ZNSt3__116allocator_traitsINS_9allocatorI8TreeNodeEEE9constructB8ue170006IS2_JRKS2_EvEEvRS3_PT_DpOT0_, symObjAddr: 0x371C, symBinAddr: 0x100006874, symSize: 0x34 }
  - { offsetInCU: 0xD022, offset: 0xD022, size: 0x8, addend: 0x0, symName: __ZNSt3__19allocatorI8TreeNodeE9constructB8ue170006IS1_JRKS1_EEEvPT_DpOT0_, symObjAddr: 0x3750, symBinAddr: 0x1000068A8, symSize: 0x30 }
  - { offsetInCU: 0xD077, offset: 0xD077, size: 0x8, addend: 0x0, symName: __ZNSt3__114__split_bufferI8TreeNodeRNS_9allocatorIS1_EEEC1EmmS4_, symObjAddr: 0x3780, symBinAddr: 0x1000068D8, symSize: 0x44 }
  - { offsetInCU: 0xD0CC, offset: 0xD0CC, size: 0x8, addend: 0x0, symName: __ZNSt3__114__split_bufferI8TreeNodeRNS_9allocatorIS1_EEED1Ev, symObjAddr: 0x38D4, symBinAddr: 0x100006A2C, symSize: 0x2C }
  - { offsetInCU: 0xD0F7, offset: 0xD0F7, size: 0x8, addend: 0x0, symName: __ZNSt3__114__split_bufferI8TreeNodeRNS_9allocatorIS1_EEEC2EmmS4_, symObjAddr: 0x3900, symBinAddr: 0x100006A58, symSize: 0xE0 }
  - { offsetInCU: 0xD16A, offset: 0xD16A, size: 0x8, addend: 0x0, symName: __ZNSt3__117__compressed_pairIP8TreeNodeRNS_9allocatorIS1_EEEC1B8ue170006IDnS5_EEOT_OT0_, symObjAddr: 0x39E0, symBinAddr: 0x100006B38, symSize: 0x3C }
  - { offsetInCU: 0xD1C1, offset: 0xD1C1, size: 0x8, addend: 0x0, symName: __ZNSt3__114__split_bufferI8TreeNodeRNS_9allocatorIS1_EEE7__allocB8ue170006Ev, symObjAddr: 0x3A1C, symBinAddr: 0x100006B74, symSize: 0x28 }
  - { offsetInCU: 0xD1E6, offset: 0xD1E6, size: 0x8, addend: 0x0, symName: __ZNSt3__114__split_bufferI8TreeNodeRNS_9allocatorIS1_EEE9__end_capB8ue170006Ev, symObjAddr: 0x3A44, symBinAddr: 0x100006B9C, symSize: 0x28 }
  - { offsetInCU: 0xD20B, offset: 0xD20B, size: 0x8, addend: 0x0, symName: __ZNSt3__117__compressed_pairIP8TreeNodeRNS_9allocatorIS1_EEEC2B8ue170006IDnS5_EEOT_OT0_, symObjAddr: 0x3A6C, symBinAddr: 0x100006BC4, symSize: 0x48 }
  - { offsetInCU: 0xD262, offset: 0xD262, size: 0x8, addend: 0x0, symName: __ZNSt3__122__compressed_pair_elemIRNS_9allocatorI8TreeNodeEELi1ELb0EEC2B8ue170006IS4_vEEOT_, symObjAddr: 0x3AB4, symBinAddr: 0x100006C0C, symSize: 0x20 }
  - { offsetInCU: 0xD2A3, offset: 0xD2A3, size: 0x8, addend: 0x0, symName: __ZNSt3__117__compressed_pairIP8TreeNodeRNS_9allocatorIS1_EEE6secondB8ue170006Ev, symObjAddr: 0x3AD4, symBinAddr: 0x100006C2C, symSize: 0x28 }
  - { offsetInCU: 0xD2C8, offset: 0xD2C8, size: 0x8, addend: 0x0, symName: __ZNSt3__122__compressed_pair_elemIRNS_9allocatorI8TreeNodeEELi1ELb0EE5__getB8ue170006Ev, symObjAddr: 0x3AFC, symBinAddr: 0x100006C54, symSize: 0x18 }
  - { offsetInCU: 0xD2ED, offset: 0xD2ED, size: 0x8, addend: 0x0, symName: __ZNSt3__117__compressed_pairIP8TreeNodeRNS_9allocatorIS1_EEE5firstB8ue170006Ev, symObjAddr: 0x3B14, symBinAddr: 0x100006C6C, symSize: 0x24 }
  - { offsetInCU: 0xD312, offset: 0xD312, size: 0x8, addend: 0x0, symName: __ZNSt3__129_AllocatorDestroyRangeReverseINS_9allocatorI8TreeNodeEENS_16reverse_iteratorIPS2_EEEC1B8ue170006ERS3_RS6_S9_, symObjAddr: 0x3CDC, symBinAddr: 0x100006E34, symSize: 0x44 }
  - { offsetInCU: 0xD36D, offset: 0xD36D, size: 0x8, addend: 0x0, symName: __ZNSt3__116allocator_traitsINS_9allocatorI8TreeNodeEEE9constructB8ue170006IS2_JS2_EvEEvRS3_PT_DpOT0_, symObjAddr: 0x3D20, symBinAddr: 0x100006E78, symSize: 0x34 }
  - { offsetInCU: 0xD3C4, offset: 0xD3C4, size: 0x8, addend: 0x0, symName: __ZNSt3__128__exception_guard_exceptionsINS_29_AllocatorDestroyRangeReverseINS_9allocatorI8TreeNodeEENS_16reverse_iteratorIPS3_EEEEE10__completeB8ue170006Ev, symObjAddr: 0x3D54, symBinAddr: 0x100006EAC, symSize: 0x1C }
  - { offsetInCU: 0xD3E9, offset: 0xD3E9, size: 0x8, addend: 0x0, symName: __ZNSt3__128__exception_guard_exceptionsINS_29_AllocatorDestroyRangeReverseINS_9allocatorI8TreeNodeEENS_16reverse_iteratorIPS3_EEEEED1B8ue170006Ev, symObjAddr: 0x3D70, symBinAddr: 0x100006EC8, symSize: 0x2C }
  - { offsetInCU: 0xD412, offset: 0xD412, size: 0x8, addend: 0x0, symName: __ZNSt3__128__exception_guard_exceptionsINS_29_AllocatorDestroyRangeReverseINS_9allocatorI8TreeNodeEENS_16reverse_iteratorIPS3_EEEEEC1B8ue170006ES8_, symObjAddr: 0x3D9C, symBinAddr: 0x100006EF4, symSize: 0x34 }
  - { offsetInCU: 0xD44A, offset: 0xD44A, size: 0x8, addend: 0x0, symName: __ZNSt3__128__exception_guard_exceptionsINS_29_AllocatorDestroyRangeReverseINS_9allocatorI8TreeNodeEENS_16reverse_iteratorIPS3_EEEEEC2B8ue170006ES8_, symObjAddr: 0x3DD0, symBinAddr: 0x100006F28, symSize: 0x30 }
  - { offsetInCU: 0xD482, offset: 0xD482, size: 0x8, addend: 0x0, symName: __ZNSt3__129_AllocatorDestroyRangeReverseINS_9allocatorI8TreeNodeEENS_16reverse_iteratorIPS2_EEEC2B8ue170006ERS3_RS6_S9_, symObjAddr: 0x3E00, symBinAddr: 0x100006F58, symSize: 0x38 }
  - { offsetInCU: 0xD4D8, offset: 0xD4D8, size: 0x8, addend: 0x0, symName: __ZNSt3__19allocatorI8TreeNodeE9constructB8ue170006IS1_JS1_EEEvPT_DpOT0_, symObjAddr: 0x3E38, symBinAddr: 0x100006F90, symSize: 0x30 }
  - { offsetInCU: 0xD52D, offset: 0xD52D, size: 0x8, addend: 0x0, symName: __ZN8TreeNodeC1EOS_, symObjAddr: 0x3E68, symBinAddr: 0x100006FC0, symSize: 0x34 }
  - { offsetInCU: 0xD561, offset: 0xD561, size: 0x8, addend: 0x0, symName: __ZN8TreeNodeC2EOS_, symObjAddr: 0x3E9C, symBinAddr: 0x100006FF4, symSize: 0x50 }
  - { offsetInCU: 0xD595, offset: 0xD595, size: 0x8, addend: 0x0, symName: __ZNSt3__16vectorI8TreeNodeNS_9allocatorIS1_EEEC1B8ue170006EOS4_, symObjAddr: 0x3EEC, symBinAddr: 0x100007044, symSize: 0x34 }
  - { offsetInCU: 0xD5CF, offset: 0xD5CF, size: 0x8, addend: 0x0, symName: __ZNSt3__16vectorI8TreeNodeNS_9allocatorIS1_EEEC2B8ue170006EOS4_, symObjAddr: 0x3F20, symBinAddr: 0x100007078, symSize: 0xC4 }
  - { offsetInCU: 0xD609, offset: 0xD609, size: 0x8, addend: 0x0, symName: __ZNSt3__128__exception_guard_exceptionsINS_29_AllocatorDestroyRangeReverseINS_9allocatorI8TreeNodeEENS_16reverse_iteratorIPS3_EEEEED2B8ue170006Ev, symObjAddr: 0x3FE4, symBinAddr: 0x10000713C, symSize: 0x50 }
  - { offsetInCU: 0xD632, offset: 0xD632, size: 0x8, addend: 0x0, symName: __ZNKSt3__129_AllocatorDestroyRangeReverseINS_9allocatorI8TreeNodeEENS_16reverse_iteratorIPS2_EEEclB8ue170006Ev, symObjAddr: 0x4034, symBinAddr: 0x10000718C, symSize: 0xB4 }
  - { offsetInCU: 0xD658, offset: 0xD658, size: 0x8, addend: 0x0, symName: __ZNSt3__116reverse_iteratorINS0_IP8TreeNodeEEEC1B8ue170006ES3_, symObjAddr: 0x4158, symBinAddr: 0x1000072B0, symSize: 0x3C }
  - { offsetInCU: 0xD68F, offset: 0xD68F, size: 0x8, addend: 0x0, symName: __ZNSt3__116reverse_iteratorINS0_IP8TreeNodeEEEppB8ue170006Ev, symObjAddr: 0x4218, symBinAddr: 0x100007370, symSize: 0x30 }
  - { offsetInCU: 0xD6B4, offset: 0xD6B4, size: 0x8, addend: 0x0, symName: __ZNKSt3__116reverse_iteratorINS0_IP8TreeNodeEEE4baseB8ue170006Ev, symObjAddr: 0x4248, symBinAddr: 0x1000073A0, symSize: 0x24 }
  - { offsetInCU: 0xD6DE, offset: 0xD6DE, size: 0x8, addend: 0x0, symName: __ZNSt3__119__to_address_helperINS_16reverse_iteratorINS1_IP8TreeNodeEEEEvE6__callB8ue170006ERKS5_, symObjAddr: 0x426C, symBinAddr: 0x1000073C4, symSize: 0x38 }
  - { offsetInCU: 0xD701, offset: 0xD701, size: 0x8, addend: 0x0, symName: __ZNKSt3__116reverse_iteratorINS0_IP8TreeNodeEEEptB8ue170006Ev, symObjAddr: 0x42A4, symBinAddr: 0x1000073FC, symSize: 0x24 }
  - { offsetInCU: 0xD726, offset: 0xD726, size: 0x8, addend: 0x0, symName: __ZNKSt3__116reverse_iteratorINS0_IP8TreeNodeEEEdeB8ue170006Ev, symObjAddr: 0x42C8, symBinAddr: 0x100007420, symSize: 0x34 }
  - { offsetInCU: 0xD759, offset: 0xD759, size: 0x8, addend: 0x0, symName: __ZNSt3__116reverse_iteratorIP8TreeNodeEmmB8ue170006Ev, symObjAddr: 0x42FC, symBinAddr: 0x100007454, symSize: 0x20 }
  - { offsetInCU: 0xD77E, offset: 0xD77E, size: 0x8, addend: 0x0, symName: __ZNSt3__116reverse_iteratorINS0_IP8TreeNodeEEEC2B8ue170006ES3_, symObjAddr: 0x431C, symBinAddr: 0x100007474, symSize: 0x2C }
  - { offsetInCU: 0xD7B5, offset: 0xD7B5, size: 0x8, addend: 0x0, symName: __ZNSt3__114__split_bufferI8TreeNodeRNS_9allocatorIS1_EEED2Ev, symObjAddr: 0x4348, symBinAddr: 0x1000074A0, symSize: 0x8C }
  - { offsetInCU: 0xD7E0, offset: 0xD7E0, size: 0x8, addend: 0x0, symName: __ZNSt3__114__split_bufferI8TreeNodeRNS_9allocatorIS1_EEE5clearB8ue170006Ev, symObjAddr: 0x43D4, symBinAddr: 0x10000752C, symSize: 0x28 }
  - { offsetInCU: 0xD805, offset: 0xD805, size: 0x8, addend: 0x0, symName: __ZNKSt3__114__split_bufferI8TreeNodeRNS_9allocatorIS1_EEE8capacityB8ue170006Ev, symObjAddr: 0x43FC, symBinAddr: 0x100007554, symSize: 0x40 }
  - { offsetInCU: 0xD82A, offset: 0xD82A, size: 0x8, addend: 0x0, symName: __ZNSt3__114__split_bufferI8TreeNodeRNS_9allocatorIS1_EEE17__destruct_at_endB8ue170006EPS1_, symObjAddr: 0x443C, symBinAddr: 0x100007594, symSize: 0x2C }
  - { offsetInCU: 0xD85C, offset: 0xD85C, size: 0x8, addend: 0x0, symName: __ZNSt3__114__split_bufferI8TreeNodeRNS_9allocatorIS1_EEE17__destruct_at_endB8ue170006EPS1_NS_17integral_constantIbLb0EEE, symObjAddr: 0x4468, symBinAddr: 0x1000075C0, symSize: 0x80 }
  - { offsetInCU: 0xD89B, offset: 0xD89B, size: 0x8, addend: 0x0, symName: __ZNKSt3__114__split_bufferI8TreeNodeRNS_9allocatorIS1_EEE9__end_capB8ue170006Ev, symObjAddr: 0x44E8, symBinAddr: 0x100007640, symSize: 0x28 }
  - { offsetInCU: 0xD8C0, offset: 0xD8C0, size: 0x8, addend: 0x0, symName: __ZNKSt3__117__compressed_pairIP8TreeNodeRNS_9allocatorIS1_EEE5firstB8ue170006Ev, symObjAddr: 0x4510, symBinAddr: 0x100007668, symSize: 0x24 }
  - { offsetInCU: 0xD8E5, offset: 0xD8E5, size: 0x8, addend: 0x0, symName: __ZNSt3__16vectorI8TreeNodeNS_9allocatorIS1_EEEC2B8ue170006Ev, symObjAddr: 0x4534, symBinAddr: 0x10000768C, symSize: 0x4C }
  - { offsetInCU: 0xD90E, offset: 0xD90E, size: 0x8, addend: 0x0, symName: __ZNSt3__117__compressed_pairIP8TreeNodeNS_9allocatorIS1_EEEC1B8ue170006IDnNS_18__default_init_tagEEEOT_OT0_, symObjAddr: 0x4580, symBinAddr: 0x1000076D8, symSize: 0x3C }
  - { offsetInCU: 0xD965, offset: 0xD965, size: 0x8, addend: 0x0, symName: __ZNSt3__117__compressed_pairIP8TreeNodeNS_9allocatorIS1_EEEC2B8ue170006IDnNS_18__default_init_tagEEEOT_OT0_, symObjAddr: 0x45BC, symBinAddr: 0x100007714, symSize: 0x40 }
  - { offsetInCU: 0xD9BC, offset: 0xD9BC, size: 0x8, addend: 0x0, symName: __ZNSt3__122__compressed_pair_elemINS_9allocatorI8TreeNodeEELi1ELb1EEC2B8ue170006ENS_18__default_init_tagE, symObjAddr: 0x45FC, symBinAddr: 0x100007754, symSize: 0x2C }
  - { offsetInCU: 0xD9EF, offset: 0xD9EF, size: 0x8, addend: 0x0, symName: __ZNSt3__19allocatorI8TreeNodeEC2B8ue170006Ev, symObjAddr: 0x4628, symBinAddr: 0x100007780, symSize: 0x2C }
  - { offsetInCU: 0xDA18, offset: 0xDA18, size: 0x8, addend: 0x0, symName: __ZNSt3__116__non_trivial_ifILb1ENS_9allocatorI8TreeNodeEEEC2B8ue170006Ev, symObjAddr: 0x4654, symBinAddr: 0x1000077AC, symSize: 0x14 }
...
